
/projectnb/ec513/students/jjlim/final/black-parrot-sim/black-parrot/bp_top/syn/results/verilator/bp_tethered.e_bp_default_cfg.submit.sim.bp-tests.virtual_memory/prog.riscv:     file format elf64-littleriscv

SYMBOL TABLE:
0000000080000000 l    d  .text	0000000000000000 .text
0000000080005e30 l    d  .rodata	0000000000000000 .rodata
0000000080006080 l    d  .init_array	0000000000000000 .init_array
0000000080006090 l    d  .data	0000000000000000 .data
0000000080008e30 l    d  .got	0000000000000000 .got
0000000080008e40 l    d  .got.plt	0000000000000000 .got.plt
0000000080008e50 l    d  .sdata	0000000000000000 .sdata
0000000080008ea8 l    d  .sbss	0000000000000000 .sbss
0000000080009000 l    d  .bss	0000000000000000 .bss
0000000000000000 l    d  .riscv.attributes	0000000000000000 .riscv.attributes
0000000000000000 l    d  .comment	0000000000000000 .comment
0000000000000000 l    df *ABS*	0000000000000000 ccbYmc3t.o
0000000080000060 l       .text	0000000000000000 m_trap_vector
0000000000000000 l    df *ABS*	0000000000000000 exception.o
0000000000000000 l    df *ABS*	0000000000000000 atomics.o
0000000000000000 l    df *ABS*	0000000000000000 muldiv.o
0000000000000000 l    df *ABS*	0000000000000000 virtual_memory.c
0000000000000000 l    df *ABS*	0000000000000000 bp_l2_cache.c
0000000000000000 l    df *ABS*	0000000000000000 bp_trap.c
00000000800080f0 l     O .data	0000000000000080 exception_handler
0000000080008170 l     O .data	0000000000000060 interrupt_handler
0000000000000000 l    df *ABS*	0000000000000000 bp_utils.c
0000000000000000 l    df *ABS*	0000000000000000 bsg_newlib_intf.c
0000000000000000 l    df *ABS*	0000000000000000 emulation.c
00000000800081d0 l     O .data	0000000000000100 amow_jt
00000000800082d0 l     O .data	0000000000000100 amod_jt
0000000080008410 l     O .data	0000000000000040 amo_jt
00000000800083d0 l     O .data	0000000000000040 mul_jt
0000000000000000 l    df *ABS*	0000000000000000 exit.c
0000000000000000 l    df *ABS*	0000000000000000 impure.c
0000000080008450 l     O .data	00000000000001d0 impure_data
0000000000000000 l    df *ABS*	0000000000000000 lib_a-memset.o
0000000000000000 l    df *ABS*	0000000000000000 __call_atexit.c
0000000080004c58 l     F .text	0000000000000012 register_fini
0000000000000000 l    df *ABS*	0000000000000000 atexit.c
0000000000000000 l    df *ABS*	0000000000000000 fini.c
0000000000000000 l    df *ABS*	0000000000000000 __atexit.c
0000000000000000 l    df *ABS*	0000000000000000 sys_exit.c
0000000000000000 l    df *ABS*	0000000000000000 sysclose.c
0000000000000000 l    df *ABS*	0000000000000000 closer.c
0000000000000000 l    df *ABS*	0000000000000000 reent.c
0000000000000000 l    df *ABS*	0000000000000000 mallocr.c
0000000000000000 l    df *ABS*	0000000000000000 mallocr.c
0000000000000000 l    df *ABS*	0000000000000000 mlock.c
0000000000000000 l    df *ABS*	0000000000000000 sbrkr.c
0000000000000000 l    df *ABS*	0000000000000000 sys_close.c
0000000000000000 l    df *ABS*	0000000000000000 sys_sbrk.c
0000000000000000 l    df *ABS*	0000000000000000 dramfs_fdtable.c
000000008001e000 l     O .bss	0000000000000640 dramfs_fdtable
0000000000000000 l    df *ABS*	0000000000000000 lfs.c
00000000800018ec l     F .text	0000000000000010 lfs_bd_erase
00000000800018fc l     F .text	0000000000000034 lfs_alloc_lookahead
0000000080001930 l     F .text	00000000000000ba lfs_dir_fromle32
00000000800019ea l     F .text	00000000000000ba lfs_dir_tole32
0000000080001aa4 l     F .text	000000000000005e lfs_entry_fromle32
0000000080001b02 l     F .text	000000000000005e lfs_entry_tole32
0000000080001b60 l     F .text	0000000000000162 lfs_cache_read
0000000080001cc2 l     F .text	000000000000001c lfs_bd_read
0000000080001cde l     F .text	0000000000000170 lfs_dir_fetch
0000000080001e4e l     F .text	00000000000000ee lfs_dir_next
0000000080001f3c l     F .text	00000000000000c6 lfs_moved
0000000080002002 l     F .text	00000000000000ec lfs_parent
00000000800020ee l     F .text	00000000000000d6 lfs_pred
00000000800021c4 l     F .text	0000000000000072 lfs_cache_cmp
0000000080002236 l     F .text	00000000000001ce lfs_dir_find
0000000080002404 l     F .text	000000000000003a lfs_deinit
000000008000243e l     F .text	00000000000000bc lfs_ctz_index
00000000800024fa l     F .text	0000000000000102 lfs_ctz_traverse
00000000800025fc l     F .text	000000000000008c lfs_init
0000000080002688 l     F .text	00000000000001bc lfs_ctz_find
0000000080002844 l     F .text	000000000000008e lfs_cache_flush
00000000800028d2 l     F .text	0000000000000146 lfs_cache_prog
00000000800030ae l     F .text	00000000000000de lfs_alloc
000000008000318c l     F .text	0000000000000094 lfs_dir_alloc
0000000080003220 l     F .text	00000000000000f8 lfs_file_relocate
000000008000374a l     F .text	000000000000011a lfs_file_flush
0000000080004306 l     F .text	000000000000014c lfs_dir_remove
0000000080003c76 l     F .text	0000000000000408 lfs_dir_commit
000000008000407e l     F .text	0000000000000064 lfs_dir_update
00000000800041ca l     F .text	000000000000013c lfs_dir_append
0000000000000000 l    df *ABS*	0000000000000000 lfs_util.c
0000000080005e98 l     O .rodata	0000000000000040 rtable.0
0000000000000000 l    df *ABS*	0000000000000000 lfs_mem.c
0000000000000000 l    df *ABS*	0000000000000000 lfs_bd.c
0000000000000000 l    df *ABS*	0000000000000000 dramfs_fs.c
0000000000000000 l    df *ABS*	0000000000000000 errno.c
0000000000000000 l    df *ABS*	0000000000000000 malloc.c
0000000000000000 l    df *ABS*	0000000000000000 memcmp.c
0000000000000000 l    df *ABS*	0000000000000000 memcpy.c
0000000000000000 l    df *ABS*	0000000000000000 strchr.c
0000000000000000 l    df *ABS*	0000000000000000 strcspn.c
0000000000000000 l    df *ABS*	0000000000000000 strlen.c
0000000000000000 l    df *ABS*	0000000000000000 strspn.c
0000000000000000 l    df *ABS*	0000000000000000 sysopen.c
0000000000000000 l    df *ABS*	0000000000000000 openr.c
0000000000000000 l    df *ABS*	0000000000000000 sys_open.c
0000000080006088 l       .init_array	0000000000000000 __fini_array_end
0000000080006088 l       .init_array	0000000000000000 __fini_array_start
0000000080008e30 l     O .got	0000000000000000 _GLOBAL_OFFSET_TABLE_
0000000080002a18 g     F .text	000000000000005c lfs_dir_open
0000000080004e80 g     F .text	0000000000000060 cleanup_glue
0000000080002c4a g     F .text	0000000000000004 lfs_file_tell
000000008001a000 g     O .bss	0000000000001000 kpt
0000000080001066  w    F .text	0000000000000010 dramfs_fs_init
0000000080004452 g     F .text	0000000000000202 lfs_format
0000000080002bb2 g     F .text	000000000000002a lfs_dir_rewind
000000008000098c g       .text	0000000000000000 amo_maxuw
0000000080000a24 g       .text	0000000000000000 amo_minuw
00000000800012f2 g     F .text	0000000000000022 dramfs_sendchar
00000000800008ac g       .text	0000000000000000 amo_andd
0000000080009650 g       .sdata	0000000000000000 __global_pointer$
0000000080006090 g       .data	0000000000000000 _fdata
0000000080008ea8 g     O .sbss	0000000000000001 test_active
0000000080005916 g     F .text	0000000000000002 __malloc_unlock
00000000800016de g       .text	0000000000000000 mul_mulhu
00000000800039a4 g     F .text	000000000000004e lfs_file_seek
0000000080002eb0 g     F .text	0000000000000010 lfs_unmount
000000008000061a g     F .text	0000000000000036 m_place_instruction
0000000080005988 g     F .text	000000000000000a __errno
0000000080004b98 g     F .text	000000000000002c lfs_erase
000000008001b000 g     O .bss	0000000000003000 pt
000000008000493a g     F .text	00000000000001ae lfs_rename
0000000080008eac g     O .sbss	0000000000000004 errno
000000008000607f g       .rodata	0000000000000000 _etext
0000000080001222 g     F .text	0000000000000046 bp_cget
0000000080002bdc g     F .text	000000000000006e lfs_dir_seek
0000000080008090  w    O .data	0000000000000060 dramfs_fs_cfg
0000000080005a02 g     F .text	00000000000000e4 memcpy
0000000080006090  w    O .data	0000000000002000 lfs_mem
0000000080004b34 g     F .text	0000000000000032 lfs_read
0000000080000b22 g     F .text	0000000000000072 l2cache_ainv
0000000080001538 g       .text	0000000000000000 __mtvec_handler
0000000080003318 g     F .text	0000000000000432 lfs_file_write
00000000800039f2 g     F .text	000000000000001e lfs_file_rewind
0000000080001314 g     F .text	0000000000000018 dramfs_getchar
0000000080000f92 g     F .text	00000000000000d4 bp_trap_handler
000000008000040c g     F .text	000000000000000e userspace_trap_return_trampoline
0000000080001182 g     F .text	0000000000000064 bp_hprint_uint64
0000000080001090 g     F .text	0000000000000046 bp_barrier_end
00000000800011e6 g     F .text	000000000000003c bp_print_string
0000000080005992 g     F .text	000000000000000e malloc
0000000080000b94 g     F .text	000000000000007e l2cache_alock
000000008000128a g     F .text	000000000000001a bp_param_get
0000000080000598 g     F .text	000000000000003c handle_trap
00000000800005d4 g     F .text	0000000000000046 m_init_vm
0000000080000880 g       .text	0000000000000000 amo_addd
0000000080001268 g     F .text	0000000000000022 bp_panic
0000000080008ec0 g     O .sbss	0000000000000008 __malloc_top_pad
0000000080000650 g     F .text	0000000000000102 m_handle_u_ecall
0000000080005918 g     F .text	0000000000000038 _sbrk_r
0000000080008e60 g     O .sdata	0000000000000008 cfg_reg_icache_mode
00000000800008d8 g       .text	0000000000000000 amo_ord
0000000080008eb8 g     O .sbss	0000000000000008 __malloc_max_sbrked_mem
0000000080008e88 g     O .sdata	0000000000000008 heap_ptr
0000000080008ea0 g     O .sdata	0000000000000008 _global_impure_ptr
000000008000046e g     F .text	000000000000001e check_if_page_mapped
00000000800017cc g     F .text	0000000000000022 dramfs_init_fdtable
0000000080005da0 g     F .text	000000000000008e _open
0000000080005976 g     F .text	0000000000000012 _sbrk
000000008000471e g     F .text	000000000000017e lfs_file_opencfg
000000008001e640  w    O .bss	0000000000000060 dramfs_fs
0000000080001884 g     F .text	0000000000000014 dramfs_get_file
0000000080001502 g     F .text	0000000000000036 bp_unhandled_trap_abort
000000008000169a g       .text	0000000000000000 mul_mulhsu
0000000080003a10 g     F .text	00000000000000d0 lfs_file_truncate
0000000080000e5e g     F .text	00000000000000a6 l2cache_tagst
0000000080000d22 g     F .text	000000000000009e l2cache_taglv
0000000080004d54 g     F .text	0000000000000038 __libc_fini_array
0000000080001898 g     F .text	0000000000000054 dramfs_free_fd
0000000080009000 g     O .bss	0000000000000020 latest_fault_info
0000000080004ee0 g     F .text	00000000000000f6 _reclaim_reent
0000000080008e68 g     O .sdata	0000000000000008 lfs_ptr
0000000080000274 g     F .text	0000000000000198 u_test_main
0000000080004bc4 g     F .text	0000000000000004 lfs_sync
0000000080002c4e g     F .text	0000000000000020 lfs_file_size
000000008000091a g       .text	0000000000000000 amo_maxd
00000000800009b2 g       .text	0000000000000000 amo_mind
0000000080000858 g       .text	0000000000000000 amo_swapd
000000008000017c g     F .text	000000000000003e s_set_dcache_uncached
0000000080000846 g       .text	0000000000000000 amo_swapw
00000000800050b0 g     F .text	000000000000024c _free_r
00000000800001f8 g     F .text	000000000000003e s_repage_secret
0000000080004c6a g     F .text	00000000000000e0 __call_exitprocs
0000000080008e58 g     O .sdata	0000000000000008 cfg_reg_dcache_mode
000000008f000000 g       *ABS*	0000000000000000 _sp
0000000080000000 g       .text	0000000000000000 _ftext
0000000080008e78 g     O .sdata	0000000000000008 __malloc_sbrk_base
0000000080000000 g       .text	0000000000000000 _start
0000000080000896 g       .text	0000000000000000 amo_andw
00000000800012a4 g     F .text	0000000000000028 dramfs_init
0000000080005d62 g     F .text	000000000000003e _open_r
0000000080004d8c g     F .text	000000000000008e __register_exitproc
0000000080000ab0 g     F .text	0000000000000072 l2cache_aflinv
000000008000041a g     F .text	0000000000000054 get_pte
0000000080002a94 g     F .text	000000000000011a lfs_dir_read
000000008001e6a0 g     O .bss	0000000000000028 __malloc_current_mallinfo
00000000800040e2 g     F .text	0000000000000094 lfs_file_sync
0000000080000c84 g     F .text	000000000000009e l2cache_tagfl
000000008000183e g     F .text	0000000000000046 dramfs_reserve_fd
0000000080004e48 g     F .text	0000000000000038 _close_r
00000000800059ae g     F .text	0000000000000054 memcmp
0000000080002ec0 g     F .text	00000000000001ee lfs_traverse
000000008000048c g     F .text	000000000000010c s_handle_vm_fault
00000000800017ee g     F .text	0000000000000034 dramfs_check_fd
0000000080004654 g     F .text	00000000000000ca lfs_mkdir
0000000080008620 g     O .data	0000000000000810 __malloc_av_
0000000080004176 g     F .text	0000000000000054 lfs_file_close
0000000080005914 g     F .text	0000000000000002 __malloc_lock
0000000080001162 g     F .text	0000000000000020 bp_cprint
0000000080008ec8 g       .bss	0000000000000000 __bss_start
0000000080001722 g     F .text	00000000000000aa memset
0000000080000752 g     F .text	00000000000000f4 main
0000000080001822 g     F .text	000000000000001c dramfs_nonblock_fd
0000000080004b66 g     F .text	0000000000000032 lfs_prog
0000000080008eb0 g     O .sbss	0000000000000008 __malloc_max_total_mem
0000000080000118 g       .text	0000000000000000 trap_entry
0000000080000966 g       .text	0000000000000000 amo_maxud
00000000800009fe g       .text	0000000000000000 amo_minud
00000000800052fc g     F .text	0000000000000618 _malloc_r
0000000080002bae g     F .text	0000000000000004 lfs_dir_tell
0000000080004fd6 g     F .text	00000000000000da _malloc_trim_r
0000000080000dc0 g     F .text	000000000000009e l2cache_tagla
00000000800012cc g     F .text	0000000000000026 dramfs_exit
0000000080009020 g     O .bss	0000000000010000 thrash_area
0000000080000a4a g     F .text	0000000000000066 l2cache_afl
0000000080002c6e g     F .text	0000000000000096 lfs_stat
0000000080004d4a g     F .text	000000000000000a atexit
0000000080005c12 g     F .text	000000000000004c strcspn
00000000800010d6 g     F .text	0000000000000032 bp_finish
0000000080008e70 g     O .sdata	0000000000000008 _impure_ptr
00000000800008c2 g       .text	0000000000000000 amo_orw
0000000080000236 g     F .text	000000000000003e s_incorrect_flush
0000000080000904 g       .text	0000000000000000 amo_xord
000000008000086a g       .text	0000000000000000 amo_addw
00000000800008ee g       .text	0000000000000000 amo_xorw
0000000080004ae8 g     F .text	0000000000000046 lfs_crc
0000000080008ea8 g       .sdata	0000000000000000 _edata
000000008001e6c8 g       .bss	0000000000000000 _end
0000000080001108 g     F .text	000000000000005a bp_hprint
00000000800048ac g     F .text	000000000000008e lfs_remove
000000008000489c g     F .text	0000000000000010 lfs_file_open
0000000080000f04 g     F .text	000000000000008e register_trap_handler
0000000080008e80 g     O .sdata	0000000000000008 __malloc_trim_threshold
0000000080008e50 g     O .sdata	0000000000000008 secret
0000000080004c36 g     F .text	0000000000000022 exit
000000008000138a g     F .text	0000000000000178 bp_emulate_illegal_instruction
00000000800001ba g     F .text	000000000000003e s_set_dcache_default
00000000800000a0 g       .text	0000000000000000 pop_tf
0000000080000c12 g     F .text	0000000000000072 l2cache_aunlock
0000000080004e1a g     F .text	0000000000000022 _exit
0000000080002d04 g     F .text	00000000000001ac lfs_mount
0000000080005d00 g     F .text	0000000000000034 strspn
0000000080005c5e g     F .text	00000000000000a2 strlen
0000000080005d34 g     F .text	000000000000002e open
0000000080005ae6 g     F .text	000000000000012c strchr
0000000080003864 g     F .text	0000000000000140 lfs_file_read
0000000080002a74 g     F .text	0000000000000020 lfs_dir_close
0000000080001076 g     F .text	000000000000001a bp_get_hart
0000000080000940 g       .text	0000000000000000 amo_maxw
00000000800009d8 g       .text	0000000000000000 amo_minw
0000000080003ae0 g     F .text	0000000000000196 lfs_deorphan
0000000080008ea8 g       .sbss	0000000000000000 _fbss
0000000080004e3c g     F .text	000000000000000c close
0000000080001656 g       .text	0000000000000000 mul_mulh
0000000080005950 g     F .text	0000000000000026 _close
00000000800059a0 g     F .text	000000000000000e free
000000008000132c g     F .text	000000000000005e bp_dump_trap_context



Disassembly of section .text:

0000000080000000 <_ftext>:
    80000000:	00000297          	auipc	t0,0x0
    80000004:	06028293          	addi	t0,t0,96 # 80000060 <m_trap_vector>
    80000008:	30529073          	csrw	mtvec,t0
    8000000c:	00008137          	lui	sp,0x8
    80000010:	213d                	addiw	sp,sp,15 # 800f <_ftext-0x7fff7ff1>
    80000012:	0142                	slli	sp,sp,0x10
    80000014:	ee810113          	addi	sp,sp,-280
    80000018:	34011073          	csrw	mscratch,sp
    8000001c:	4081                	li	ra,0
    8000001e:	4181                	li	gp,0
    80000020:	4201                	li	tp,0
    80000022:	4281                	li	t0,0
    80000024:	4301                	li	t1,0
    80000026:	4381                	li	t2,0
    80000028:	4401                	li	s0,0
    8000002a:	4481                	li	s1,0
    8000002c:	4501                	li	a0,0
    8000002e:	4581                	li	a1,0
    80000030:	4601                	li	a2,0
    80000032:	4681                	li	a3,0
    80000034:	4701                	li	a4,0
    80000036:	4781                	li	a5,0
    80000038:	4801                	li	a6,0
    8000003a:	4881                	li	a7,0
    8000003c:	4901                	li	s2,0
    8000003e:	4981                	li	s3,0
    80000040:	4a01                	li	s4,0
    80000042:	4a81                	li	s5,0
    80000044:	4b01                	li	s6,0
    80000046:	4b81                	li	s7,0
    80000048:	4c01                	li	s8,0
    8000004a:	4c81                	li	s9,0
    8000004c:	4d01                	li	s10,0
    8000004e:	4d81                	li	s11,0
    80000050:	4e01                	li	t3,0
    80000052:	4e81                	li	t4,0
    80000054:	4f01                	li	t5,0
    80000056:	4f81                	li	t6,0
    80000058:	6fa0006f          	j	80000752 <main>
    8000005c:	07a0106f          	j	800010d6 <bp_finish>

0000000080000060 <m_trap_vector>:
    80000060:	34011173          	csrrw	sp,mscratch,sp
    80000064:	f416                	sd	t0,40(sp)
    80000066:	f81a                	sd	t1,48(sp)
    80000068:	42a1                	li	t0,8
    8000006a:	34202373          	csrr	t1,mcause
    8000006e:	02629363          	bne	t0,t1,80000094 <m_trap_vector+0x34>
    80000072:	00059463          	bnez	a1,8000007a <m_trap_vector+0x1a>
    80000076:	0600106f          	j	800010d6 <bp_finish>
    8000007a:	5d6000ef          	jal	80000650 <m_handle_u_ecall>
    8000007e:	341022f3          	csrr	t0,mepc
    80000082:	0291                	addi	t0,t0,4
    80000084:	34129073          	csrw	mepc,t0
    80000088:	72a2                	ld	t0,40(sp)
    8000008a:	7342                	ld	t1,48(sp)
    8000008c:	34011173          	csrrw	sp,mscratch,sp
    80000090:	30200073          	mret
    80000094:	72a2                	ld	t0,40(sp)
    80000096:	7342                	ld	t1,48(sp)
    80000098:	34011173          	csrrw	sp,mscratch,sp
    8000009c:	49c0106f          	j	80001538 <__mtvec_handler>

00000000800000a0 <pop_tf>:
    800000a0:	10853283          	ld	t0,264(a0)
    800000a4:	14129073          	csrw	sepc,t0
    800000a8:	00853083          	ld	ra,8(a0)
    800000ac:	01053103          	ld	sp,16(a0)
    800000b0:	01853183          	ld	gp,24(a0)
    800000b4:	02053203          	ld	tp,32(a0)
    800000b8:	02853283          	ld	t0,40(a0)
    800000bc:	03053303          	ld	t1,48(a0)
    800000c0:	03853383          	ld	t2,56(a0)
    800000c4:	6120                	ld	s0,64(a0)
    800000c6:	6524                	ld	s1,72(a0)
    800000c8:	6d2c                	ld	a1,88(a0)
    800000ca:	7130                	ld	a2,96(a0)
    800000cc:	7534                	ld	a3,104(a0)
    800000ce:	7938                	ld	a4,112(a0)
    800000d0:	7d3c                	ld	a5,120(a0)
    800000d2:	08053803          	ld	a6,128(a0)
    800000d6:	08853883          	ld	a7,136(a0)
    800000da:	09053903          	ld	s2,144(a0)
    800000de:	09853983          	ld	s3,152(a0)
    800000e2:	0a053a03          	ld	s4,160(a0)
    800000e6:	0a853a83          	ld	s5,168(a0)
    800000ea:	0b053b03          	ld	s6,176(a0)
    800000ee:	0b853b83          	ld	s7,184(a0)
    800000f2:	0c053c03          	ld	s8,192(a0)
    800000f6:	0c853c83          	ld	s9,200(a0)
    800000fa:	0d053d03          	ld	s10,208(a0)
    800000fe:	0d853d83          	ld	s11,216(a0)
    80000102:	0e053e03          	ld	t3,224(a0)
    80000106:	0e853e83          	ld	t4,232(a0)
    8000010a:	0f053f03          	ld	t5,240(a0)
    8000010e:	0f853f83          	ld	t6,248(a0)
    80000112:	6928                	ld	a0,80(a0)
    80000114:	10200073          	sret

0000000080000118 <trap_entry>:
    80000118:	14011173          	csrrw	sp,sscratch,sp
    8000011c:	e406                	sd	ra,8(sp)
    8000011e:	ec0e                	sd	gp,24(sp)
    80000120:	f012                	sd	tp,32(sp)
    80000122:	f416                	sd	t0,40(sp)
    80000124:	f81a                	sd	t1,48(sp)
    80000126:	fc1e                	sd	t2,56(sp)
    80000128:	e0a2                	sd	s0,64(sp)
    8000012a:	e4a6                	sd	s1,72(sp)
    8000012c:	e8aa                	sd	a0,80(sp)
    8000012e:	ecae                	sd	a1,88(sp)
    80000130:	f0b2                	sd	a2,96(sp)
    80000132:	f4b6                	sd	a3,104(sp)
    80000134:	f8ba                	sd	a4,112(sp)
    80000136:	fcbe                	sd	a5,120(sp)
    80000138:	e142                	sd	a6,128(sp)
    8000013a:	e546                	sd	a7,136(sp)
    8000013c:	e94a                	sd	s2,144(sp)
    8000013e:	ed4e                	sd	s3,152(sp)
    80000140:	f152                	sd	s4,160(sp)
    80000142:	f556                	sd	s5,168(sp)
    80000144:	f95a                	sd	s6,176(sp)
    80000146:	fd5e                	sd	s7,184(sp)
    80000148:	e1e2                	sd	s8,192(sp)
    8000014a:	e5e6                	sd	s9,200(sp)
    8000014c:	e9ea                	sd	s10,208(sp)
    8000014e:	edee                	sd	s11,216(sp)
    80000150:	f1f2                	sd	t3,224(sp)
    80000152:	f5f6                	sd	t4,232(sp)
    80000154:	f9fa                	sd	t5,240(sp)
    80000156:	fdfe                	sd	t6,248(sp)
    80000158:	140112f3          	csrrw	t0,sscratch,sp
    8000015c:	e816                	sd	t0,16(sp)
    8000015e:	100022f3          	csrr	t0,sstatus
    80000162:	e216                	sd	t0,256(sp)
    80000164:	141022f3          	csrr	t0,sepc
    80000168:	e616                	sd	t0,264(sp)
    8000016a:	143022f3          	csrr	t0,stval
    8000016e:	ea16                	sd	t0,272(sp)
    80000170:	142022f3          	csrr	t0,scause
    80000174:	ee16                	sd	t0,280(sp)
    80000176:	850a                	mv	a0,sp
    80000178:	4200006f          	j	80000598 <handle_trap>

000000008000017c <s_set_dcache_uncached>:
    8000017c:	711d                	addi	sp,sp,-96
    8000017e:	ec86                	sd	ra,88(sp)
    80000180:	e8a6                	sd	s1,80(sp)
    80000182:	e4ca                	sd	s2,72(sp)
    80000184:	e0ce                	sd	s3,64(sp)
    80000186:	fc52                	sd	s4,56(sp)
    80000188:	f856                	sd	s5,48(sp)
    8000018a:	f45a                	sd	s6,40(sp)
    8000018c:	f05e                	sd	s7,32(sp)
    8000018e:	ec62                	sd	s8,24(sp)
    80000190:	e866                	sd	s9,16(sp)
    80000192:	e46a                	sd	s10,8(sp)
    80000194:	e06e                	sd	s11,0(sp)
    80000196:	4501                	li	a0,0
    80000198:	4585                	li	a1,1
    8000019a:	00000073          	ecall
    8000019e:	60e6                	ld	ra,88(sp)
    800001a0:	64c6                	ld	s1,80(sp)
    800001a2:	6926                	ld	s2,72(sp)
    800001a4:	6986                	ld	s3,64(sp)
    800001a6:	7a62                	ld	s4,56(sp)
    800001a8:	7ac2                	ld	s5,48(sp)
    800001aa:	7b22                	ld	s6,40(sp)
    800001ac:	7b82                	ld	s7,32(sp)
    800001ae:	6c62                	ld	s8,24(sp)
    800001b0:	6cc2                	ld	s9,16(sp)
    800001b2:	6d22                	ld	s10,8(sp)
    800001b4:	6d82                	ld	s11,0(sp)
    800001b6:	6125                	addi	sp,sp,96
    800001b8:	8082                	ret

00000000800001ba <s_set_dcache_default>:
    800001ba:	711d                	addi	sp,sp,-96
    800001bc:	ec86                	sd	ra,88(sp)
    800001be:	e8a6                	sd	s1,80(sp)
    800001c0:	e4ca                	sd	s2,72(sp)
    800001c2:	e0ce                	sd	s3,64(sp)
    800001c4:	fc52                	sd	s4,56(sp)
    800001c6:	f856                	sd	s5,48(sp)
    800001c8:	f45a                	sd	s6,40(sp)
    800001ca:	f05e                	sd	s7,32(sp)
    800001cc:	ec62                	sd	s8,24(sp)
    800001ce:	e866                	sd	s9,16(sp)
    800001d0:	e46a                	sd	s10,8(sp)
    800001d2:	e06e                	sd	s11,0(sp)
    800001d4:	4505                	li	a0,1
    800001d6:	4585                	li	a1,1
    800001d8:	00000073          	ecall
    800001dc:	60e6                	ld	ra,88(sp)
    800001de:	64c6                	ld	s1,80(sp)
    800001e0:	6926                	ld	s2,72(sp)
    800001e2:	6986                	ld	s3,64(sp)
    800001e4:	7a62                	ld	s4,56(sp)
    800001e6:	7ac2                	ld	s5,48(sp)
    800001e8:	7b22                	ld	s6,40(sp)
    800001ea:	7b82                	ld	s7,32(sp)
    800001ec:	6c62                	ld	s8,24(sp)
    800001ee:	6cc2                	ld	s9,16(sp)
    800001f0:	6d22                	ld	s10,8(sp)
    800001f2:	6d82                	ld	s11,0(sp)
    800001f4:	6125                	addi	sp,sp,96
    800001f6:	8082                	ret

00000000800001f8 <s_repage_secret>:
    800001f8:	711d                	addi	sp,sp,-96
    800001fa:	ec86                	sd	ra,88(sp)
    800001fc:	e8a6                	sd	s1,80(sp)
    800001fe:	e4ca                	sd	s2,72(sp)
    80000200:	e0ce                	sd	s3,64(sp)
    80000202:	fc52                	sd	s4,56(sp)
    80000204:	f856                	sd	s5,48(sp)
    80000206:	f45a                	sd	s6,40(sp)
    80000208:	f05e                	sd	s7,32(sp)
    8000020a:	ec62                	sd	s8,24(sp)
    8000020c:	e866                	sd	s9,16(sp)
    8000020e:	e46a                	sd	s10,8(sp)
    80000210:	e06e                	sd	s11,0(sp)
    80000212:	450d                	li	a0,3
    80000214:	4585                	li	a1,1
    80000216:	00000073          	ecall
    8000021a:	60e6                	ld	ra,88(sp)
    8000021c:	64c6                	ld	s1,80(sp)
    8000021e:	6926                	ld	s2,72(sp)
    80000220:	6986                	ld	s3,64(sp)
    80000222:	7a62                	ld	s4,56(sp)
    80000224:	7ac2                	ld	s5,48(sp)
    80000226:	7b22                	ld	s6,40(sp)
    80000228:	7b82                	ld	s7,32(sp)
    8000022a:	6c62                	ld	s8,24(sp)
    8000022c:	6cc2                	ld	s9,16(sp)
    8000022e:	6d22                	ld	s10,8(sp)
    80000230:	6d82                	ld	s11,0(sp)
    80000232:	6125                	addi	sp,sp,96
    80000234:	8082                	ret

0000000080000236 <s_incorrect_flush>:
    80000236:	711d                	addi	sp,sp,-96
    80000238:	ec86                	sd	ra,88(sp)
    8000023a:	e8a6                	sd	s1,80(sp)
    8000023c:	e4ca                	sd	s2,72(sp)
    8000023e:	e0ce                	sd	s3,64(sp)
    80000240:	fc52                	sd	s4,56(sp)
    80000242:	f856                	sd	s5,48(sp)
    80000244:	f45a                	sd	s6,40(sp)
    80000246:	f05e                	sd	s7,32(sp)
    80000248:	ec62                	sd	s8,24(sp)
    8000024a:	e866                	sd	s9,16(sp)
    8000024c:	e46a                	sd	s10,8(sp)
    8000024e:	e06e                	sd	s11,0(sp)
    80000250:	4511                	li	a0,4
    80000252:	4585                	li	a1,1
    80000254:	00000073          	ecall
    80000258:	60e6                	ld	ra,88(sp)
    8000025a:	64c6                	ld	s1,80(sp)
    8000025c:	6926                	ld	s2,72(sp)
    8000025e:	6986                	ld	s3,64(sp)
    80000260:	7a62                	ld	s4,56(sp)
    80000262:	7ac2                	ld	s5,48(sp)
    80000264:	7b22                	ld	s6,40(sp)
    80000266:	7b82                	ld	s7,32(sp)
    80000268:	6c62                	ld	s8,24(sp)
    8000026a:	6cc2                	ld	s9,16(sp)
    8000026c:	6d22                	ld	s10,8(sp)
    8000026e:	6d82                	ld	s11,0(sp)
    80000270:	6125                	addi	sp,sp,96
    80000272:	8082                	ret

0000000080000274 <u_test_main>:
    80000274:	715d                	addi	sp,sp,-80
    80000276:	e486                	sd	ra,72(sp)
    80000278:	e0a2                	sd	s0,64(sp)
    8000027a:	72f9                	lui	t0,0xffffe
    8000027c:	9116                	add	sp,sp,t0
    8000027e:	6689                	lui	a3,0x2
    80000280:	02868793          	addi	a5,a3,40 # 2028 <_ftext-0x7fffdfd8>
    80000284:	0818                	addi	a4,sp,16
    80000286:	97ba                	add	a5,a5,a4
    80000288:	0007b023          	sd	zero,0(a5)
    8000028c:	7779                	lui	a4,0xffffe
    8000028e:	deade7b7          	lui	a5,0xdeade
    80000292:	ead78793          	addi	a5,a5,-339 # ffffffffdeaddead <_sp+0xffffffff4faddead>
    80000296:	f6068613          	addi	a2,a3,-160
    8000029a:	080c                	addi	a1,sp,16
    8000029c:	962e                	add	a2,a2,a1
    8000029e:	c21c                	sw	a5,0(a2)
    800002a0:	03068793          	addi	a5,a3,48
    800002a4:	97ba                	add	a5,a5,a4
    800002a6:	97ae                	add	a5,a5,a1
    800002a8:	e43e                	sd	a5,8(sp)
    800002aa:	6785                	lui	a5,0x1
    800002ac:	6722                	ld	a4,8(sp)
    800002ae:	97ba                	add	a5,a5,a4
    800002b0:	beefc737          	lui	a4,0xbeefc
    800002b4:	eef70713          	addi	a4,a4,-273 # ffffffffbeefbeef <_sp+0xffffffff2fefbeef>
    800002b8:	76e7a023          	sw	a4,1888(a5) # 1760 <_ftext-0x7fffe8a0>
    800002bc:	8636                	mv	a2,a3
    800002be:	f6068713          	addi	a4,a3,-160
    800002c2:	972e                	add	a4,a4,a1
    800002c4:	4314                	lw	a3,0(a4)
    800002c6:	6715                	lui	a4,0x5
    800002c8:	9f35                	addw	a4,a4,a3
    800002ca:	f8e7a823          	sw	a4,-112(a5)
    800002ce:	00009417          	auipc	s0,0x9
    800002d2:	b8243403          	ld	s0,-1150(s0) # 80008e50 <secret>
    800002d6:	c811                	beqz	s0,800002ea <u_test_main+0x76>
    800002d8:	601c                	ld	a5,0(s0)
    800002da:	7779                	lui	a4,0xffffe
    800002dc:	03060693          	addi	a3,a2,48
    800002e0:	96ba                	add	a3,a3,a4
    800002e2:	00b68733          	add	a4,a3,a1
    800002e6:	fef73423          	sd	a5,-24(a4) # ffffffffffffdfe8 <_sp+0xffffffff70ffdfe8>
    800002ea:	f4dff0ef          	jal	80000236 <s_incorrect_flush>
    800002ee:	601c                	ld	a5,0(s0)
    800002f0:	7779                	lui	a4,0xffffe
    800002f2:	6689                	lui	a3,0x2
    800002f4:	03068693          	addi	a3,a3,48 # 2030 <_ftext-0x7fffdfd0>
    800002f8:	96ba                	add	a3,a3,a4
    800002fa:	0818                	addi	a4,sp,16
    800002fc:	9736                	add	a4,a4,a3
    800002fe:	e43a                	sd	a4,8(sp)
    80000300:	fef73023          	sd	a5,-32(a4) # ffffffffffffdfe0 <_sp+0xffffffff70ffdfe0>
    80000304:	00009797          	auipc	a5,0x9
    80000308:	b8c7b783          	ld	a5,-1140(a5) # 80008e90 <heap_ptr+0x8>
    8000030c:	e01c                	sd	a5,0(s0)
    8000030e:	fe873783          	ld	a5,-24(a4)
    80000312:	7751                	lui	a4,0xffff4
    80000314:	11170713          	addi	a4,a4,273 # ffffffffffff4111 <_sp+0xffffffff70ff4111>
    80000318:	97ba                	add	a5,a5,a4
    8000031a:	e01c                	sd	a5,0(s0)
    8000031c:	601c                	ld	a5,0(s0)
    8000031e:	6722                	ld	a4,8(sp)
    80000320:	fef73423          	sd	a5,-24(a4)
    80000324:	ed5ff0ef          	jal	800001f8 <s_repage_secret>
    80000328:	601c                	ld	a5,0(s0)
    8000032a:	6722                	ld	a4,8(sp)
    8000032c:	fcf73c23          	sd	a5,-40(a4)
    80000330:	fd873703          	ld	a4,-40(a4)
    80000334:	ffe447b7          	lui	a5,0xffe44
    80000338:	f6f78793          	addi	a5,a5,-145 # ffffffffffe43f6f <_sp+0xffffffff70e43f6f>
    8000033c:	07ba                	slli	a5,a5,0xe
    8000033e:	09178793          	addi	a5,a5,145
    80000342:	07ba                	slli	a5,a5,0xe
    80000344:	f6f78793          	addi	a5,a5,-145
    80000348:	07ba                	slli	a5,a5,0xe
    8000034a:	09178793          	addi	a5,a5,145
    8000034e:	02f737b3          	mulhu	a5,a4,a5
    80000352:	8399                	srli	a5,a5,0x6
    80000354:	e01c                	sd	a5,0(s0)
    80000356:	06400713          	li	a4,100
    8000035a:	601c                	ld	a5,0(s0)
    8000035c:	17fd                	addi	a5,a5,-1
    8000035e:	e01c                	sd	a5,0(s0)
    80000360:	377d                	addiw	a4,a4,-1
    80000362:	ff65                	bnez	a4,8000035a <u_test_main+0xe6>
    80000364:	4781                	li	a5,0
    80000366:	3e800693          	li	a3,1000
    8000036a:	6609                	lui	a2,0x2
    8000036c:	02860713          	addi	a4,a2,40 # 2028 <_ftext-0x7fffdfd8>
    80000370:	080c                	addi	a1,sp,16
    80000372:	972e                	add	a4,a4,a1
    80000374:	6318                	ld	a4,0(a4)
    80000376:	973e                	add	a4,a4,a5
    80000378:	02860613          	addi	a2,a2,40
    8000037c:	962e                	add	a2,a2,a1
    8000037e:	e218                	sd	a4,0(a2)
    80000380:	0785                	addi	a5,a5,1
    80000382:	fed794e3          	bne	a5,a3,8000036a <u_test_main+0xf6>
    80000386:	621c                	ld	a5,0(a2)
    80000388:	c789                	beqz	a5,80000392 <u_test_main+0x11e>
    8000038a:	621c                	ld	a5,0(a2)
    8000038c:	03278793          	addi	a5,a5,50
    80000390:	e21c                	sd	a5,0(a2)
    80000392:	6689                	lui	a3,0x2
    80000394:	02868793          	addi	a5,a3,40 # 2028 <_ftext-0x7fffdfd8>
    80000398:	0818                	addi	a4,sp,16
    8000039a:	97ba                	add	a5,a5,a4
    8000039c:	6398                	ld	a4,0(a5)
    8000039e:	03200793          	li	a5,50
    800003a2:	00e7fe63          	bgeu	a5,a4,800003be <u_test_main+0x14a>
    800003a6:	8736                	mv	a4,a3
    800003a8:	02868793          	addi	a5,a3,40
    800003ac:	0814                	addi	a3,sp,16
    800003ae:	97b6                	add	a5,a5,a3
    800003b0:	639c                	ld	a5,0(a5)
    800003b2:	06478793          	addi	a5,a5,100
    800003b6:	02870713          	addi	a4,a4,40
    800003ba:	9736                	add	a4,a4,a3
    800003bc:	e31c                	sd	a5,0(a4)
    800003be:	6689                	lui	a3,0x2
    800003c0:	02868793          	addi	a5,a3,40 # 2028 <_ftext-0x7fffdfd8>
    800003c4:	0818                	addi	a4,sp,16
    800003c6:	97ba                	add	a5,a5,a4
    800003c8:	6398                	ld	a4,0(a5)
    800003ca:	06400793          	li	a5,100
    800003ce:	00e7fe63          	bgeu	a5,a4,800003ea <u_test_main+0x176>
    800003d2:	8736                	mv	a4,a3
    800003d4:	02868793          	addi	a5,a3,40
    800003d8:	0814                	addi	a3,sp,16
    800003da:	97b6                	add	a5,a5,a3
    800003dc:	639c                	ld	a5,0(a5)
    800003de:	06478793          	addi	a5,a5,100
    800003e2:	02870713          	addi	a4,a4,40
    800003e6:	9736                	add	a4,a4,a3
    800003e8:	e31c                	sd	a5,0(a4)
    800003ea:	00006517          	auipc	a0,0x6
    800003ee:	aee50513          	addi	a0,a0,-1298 # 80005ed8 <rtable.0+0x40>
    800003f2:	5f5000ef          	jal	800011e6 <bp_print_string>
    800003f6:	4781                	li	a5,0
    800003f8:	4581                	li	a1,0
    800003fa:	853e                	mv	a0,a5
    800003fc:	00000073          	ecall
    80000400:	6289                	lui	t0,0x2
    80000402:	9116                	add	sp,sp,t0
    80000404:	60a6                	ld	ra,72(sp)
    80000406:	6406                	ld	s0,64(sp)
    80000408:	6161                	addi	sp,sp,80
    8000040a:	8082                	ret

000000008000040c <userspace_trap_return_trampoline>:
    8000040c:	0008c537          	lui	a0,0x8c
    80000410:	adf50513          	addi	a0,a0,-1313 # 8badf <_ftext-0x7ff74521>
    80000414:	0532                	slli	a0,a0,0xc
    80000416:	0535                	addi	a0,a0,13
    80000418:	8082                	ret

000000008000041a <get_pte>:
    8000041a:	872a                	mv	a4,a0
    8000041c:	01e55793          	srli	a5,a0,0x1e
    80000420:	1ff7f793          	andi	a5,a5,511
    80000424:	078e                	slli	a5,a5,0x3
    80000426:	0001b697          	auipc	a3,0x1b
    8000042a:	bda68693          	addi	a3,a3,-1062 # 8001b000 <pt>
    8000042e:	97b6                	add	a5,a5,a3
    80000430:	639c                	ld	a5,0(a5)
    80000432:	0017f513          	andi	a0,a5,1
    80000436:	c91d                	beqz	a0,8000046c <get_pte+0x52>
    80000438:	01575793          	srli	a5,a4,0x15
    8000043c:	1ff7f793          	andi	a5,a5,511
    80000440:	20078793          	addi	a5,a5,512
    80000444:	078e                	slli	a5,a5,0x3
    80000446:	97b6                	add	a5,a5,a3
    80000448:	639c                	ld	a5,0(a5)
    8000044a:	0017f513          	andi	a0,a5,1
    8000044e:	cd19                	beqz	a0,8000046c <get_pte+0x52>
    80000450:	8331                	srli	a4,a4,0xc
    80000452:	1ff77713          	andi	a4,a4,511
    80000456:	40070713          	addi	a4,a4,1024
    8000045a:	070e                	slli	a4,a4,0x3
    8000045c:	00e687b3          	add	a5,a3,a4
    80000460:	639c                	ld	a5,0(a5)
    80000462:	0017f513          	andi	a0,a5,1
    80000466:	c119                	beqz	a0,8000046c <get_pte+0x52>
    80000468:	00a7d513          	srli	a0,a5,0xa
    8000046c:	8082                	ret

000000008000046e <check_if_page_mapped>:
    8000046e:	1141                	addi	sp,sp,-16
    80000470:	e406                	sd	ra,8(sp)
    80000472:	fa9ff0ef          	jal	8000041a <get_pte>
    80000476:	c909                	beqz	a0,80000488 <check_if_page_mapped+0x1a>
    80000478:	8111                	srli	a0,a0,0x4
    8000047a:	00154513          	xori	a0,a0,1
    8000047e:	8905                	andi	a0,a0,1
    80000480:	0506                	slli	a0,a0,0x1
    80000482:	60a2                	ld	ra,8(sp)
    80000484:	0141                	addi	sp,sp,16
    80000486:	8082                	ret
    80000488:	557d                	li	a0,-1
    8000048a:	bfe5                	j	80000482 <check_if_page_mapped+0x14>

000000008000048c <s_handle_vm_fault>:
    8000048c:	1141                	addi	sp,sp,-16
    8000048e:	e406                	sd	ra,8(sp)
    80000490:	e022                	sd	s0,0(sp)
    80000492:	842a                	mv	s0,a0
    80000494:	00009797          	auipc	a5,0x9
    80000498:	b6c78793          	addi	a5,a5,-1172 # 80009000 <latest_fault_info>
    8000049c:	10853703          	ld	a4,264(a0)
    800004a0:	e398                	sd	a4,0(a5)
    800004a2:	11053503          	ld	a0,272(a0)
    800004a6:	e788                	sd	a0,8(a5)
    800004a8:	11843703          	ld	a4,280(s0)
    800004ac:	eb98                	sd	a4,16(a5)
    800004ae:	4705                	li	a4,1
    800004b0:	00e78c23          	sb	a4,24(a5)
    800004b4:	fbbff0ef          	jal	8000046e <check_if_page_mapped>
    800004b8:	57fd                	li	a5,-1
    800004ba:	00f50963          	beq	a0,a5,800004cc <s_handle_vm_fault+0x40>
    800004be:	4789                	li	a5,2
    800004c0:	06f50963          	beq	a0,a5,80000532 <s_handle_vm_fault+0xa6>
    800004c4:	60a2                	ld	ra,8(sp)
    800004c6:	6402                	ld	s0,0(sp)
    800004c8:	0141                	addi	sp,sp,16
    800004ca:	8082                	ret
    800004cc:	00006517          	auipc	a0,0x6
    800004d0:	a2450513          	addi	a0,a0,-1500 # 80005ef0 <rtable.0+0x58>
    800004d4:	513000ef          	jal	800011e6 <bp_print_string>
    800004d8:	00006517          	auipc	a0,0x6
    800004dc:	a3050513          	addi	a0,a0,-1488 # 80005f08 <rtable.0+0x70>
    800004e0:	507000ef          	jal	800011e6 <bp_print_string>
    800004e4:	10843503          	ld	a0,264(s0)
    800004e8:	49b000ef          	jal	80001182 <bp_hprint_uint64>
    800004ec:	4529                	li	a0,10
    800004ee:	475000ef          	jal	80001162 <bp_cprint>
    800004f2:	00006517          	auipc	a0,0x6
    800004f6:	a1e50513          	addi	a0,a0,-1506 # 80005f10 <rtable.0+0x78>
    800004fa:	4ed000ef          	jal	800011e6 <bp_print_string>
    800004fe:	11843503          	ld	a0,280(s0)
    80000502:	481000ef          	jal	80001182 <bp_hprint_uint64>
    80000506:	4529                	li	a0,10
    80000508:	45b000ef          	jal	80001162 <bp_cprint>
    8000050c:	00006517          	auipc	a0,0x6
    80000510:	a0c50513          	addi	a0,a0,-1524 # 80005f18 <rtable.0+0x80>
    80000514:	4d3000ef          	jal	800011e6 <bp_print_string>
    80000518:	11043503          	ld	a0,272(s0)
    8000051c:	467000ef          	jal	80001182 <bp_hprint_uint64>
    80000520:	4529                	li	a0,10
    80000522:	441000ef          	jal	80001162 <bp_cprint>
    80000526:	4781                	li	a5,0
    80000528:	4581                	li	a1,0
    8000052a:	853e                	mv	a0,a5
    8000052c:	00000073          	ecall
    80000530:	bf51                	j	800004c4 <s_handle_vm_fault+0x38>
    80000532:	00006517          	auipc	a0,0x6
    80000536:	9ee50513          	addi	a0,a0,-1554 # 80005f20 <rtable.0+0x88>
    8000053a:	4ad000ef          	jal	800011e6 <bp_print_string>
    8000053e:	00006517          	auipc	a0,0x6
    80000542:	9ca50513          	addi	a0,a0,-1590 # 80005f08 <rtable.0+0x70>
    80000546:	4a1000ef          	jal	800011e6 <bp_print_string>
    8000054a:	10843503          	ld	a0,264(s0)
    8000054e:	435000ef          	jal	80001182 <bp_hprint_uint64>
    80000552:	4529                	li	a0,10
    80000554:	40f000ef          	jal	80001162 <bp_cprint>
    80000558:	00006517          	auipc	a0,0x6
    8000055c:	9b850513          	addi	a0,a0,-1608 # 80005f10 <rtable.0+0x78>
    80000560:	487000ef          	jal	800011e6 <bp_print_string>
    80000564:	11843503          	ld	a0,280(s0)
    80000568:	41b000ef          	jal	80001182 <bp_hprint_uint64>
    8000056c:	4529                	li	a0,10
    8000056e:	3f5000ef          	jal	80001162 <bp_cprint>
    80000572:	00006517          	auipc	a0,0x6
    80000576:	9a650513          	addi	a0,a0,-1626 # 80005f18 <rtable.0+0x80>
    8000057a:	46d000ef          	jal	800011e6 <bp_print_string>
    8000057e:	11043503          	ld	a0,272(s0)
    80000582:	401000ef          	jal	80001182 <bp_hprint_uint64>
    80000586:	4529                	li	a0,10
    80000588:	3db000ef          	jal	80001162 <bp_cprint>
    8000058c:	4781                	li	a5,0
    8000058e:	4581                	li	a1,0
    80000590:	853e                	mv	a0,a5
    80000592:	00000073          	ecall
    80000596:	b73d                	j	800004c4 <s_handle_vm_fault+0x38>

0000000080000598 <handle_trap>:
    80000598:	1141                	addi	sp,sp,-16
    8000059a:	e406                	sd	ra,8(sp)
    8000059c:	e022                	sd	s0,0(sp)
    8000059e:	842a                	mv	s0,a0
    800005a0:	11853783          	ld	a5,280(a0)
    800005a4:	4731                	li	a4,12
    800005a6:	00e78563          	beq	a5,a4,800005b0 <handle_trap+0x18>
    800005aa:	4705                	li	a4,1
    800005ac:	00e79c63          	bne	a5,a4,800005c4 <handle_trap+0x2c>
    800005b0:	8522                	mv	a0,s0
    800005b2:	edbff0ef          	jal	8000048c <s_handle_vm_fault>
    800005b6:	8522                	mv	a0,s0
    800005b8:	ae9ff0ef          	jal	800000a0 <pop_tf>
    800005bc:	60a2                	ld	ra,8(sp)
    800005be:	6402                	ld	s0,0(sp)
    800005c0:	0141                	addi	sp,sp,16
    800005c2:	8082                	ret
    800005c4:	ec9ff0ef          	jal	8000048c <s_handle_vm_fault>
    800005c8:	57fd                	li	a5,-1
    800005ca:	4581                	li	a1,0
    800005cc:	853e                	mv	a0,a5
    800005ce:	00000073          	ecall
    800005d2:	b7d5                	j	800005b6 <handle_trap+0x1e>

00000000800005d4 <m_init_vm>:
    800005d4:	0001b797          	auipc	a5,0x1b
    800005d8:	a2c78793          	addi	a5,a5,-1492 # 8001b000 <pt>
    800005dc:	83b1                	srli	a5,a5,0xc
    800005de:	577d                	li	a4,-1
    800005e0:	177e                	slli	a4,a4,0x3f
    800005e2:	8fd9                	or	a5,a5,a4
    800005e4:	18079073          	csrw	satp,a5
    800005e8:	000407b7          	lui	a5,0x40
    800005ec:	3007a773          	csrrs	a4,mstatus,a5
    800005f0:	1007a7f3          	csrrs	a5,sstatus,a5
    800005f4:	00200797          	auipc	a5,0x200
    800005f8:	b2478793          	addi	a5,a5,-1244 # 80200118 <_end+0x1e1a50>
    800005fc:	10579073          	csrw	stvec,a5
    80000600:	340027f3          	csrr	a5,mscratch
    80000604:	14079073          	csrw	sscratch,a5
    80000608:	67ad                	lui	a5,0xb
    8000060a:	2789                	addiw	a5,a5,2 # b002 <_ftext-0x7fff4ffe>
    8000060c:	30279073          	csrw	medeleg,a5
    80000610:	0000100f          	fence.i
    80000614:	12000073          	sfence.vma
    80000618:	8082                	ret

000000008000061a <m_place_instruction>:
    8000061a:	00157793          	andi	a5,a0,1
    8000061e:	ef91                	bnez	a5,8000063a <m_place_instruction+0x20>
    80000620:	f02007b7          	lui	a5,0xf0200
    80000624:	953e                	add	a0,a0,a5
    80000626:	03059793          	slli	a5,a1,0x30
    8000062a:	93c1                	srli	a5,a5,0x30
    8000062c:	00f51023          	sh	a5,0(a0)
    80000630:	0105d59b          	srliw	a1,a1,0x10
    80000634:	00b51123          	sh	a1,2(a0)
    80000638:	8082                	ret
    8000063a:	1141                	addi	sp,sp,-16
    8000063c:	e406                	sd	ra,8(sp)
    8000063e:	00006517          	auipc	a0,0x6
    80000642:	8fa50513          	addi	a0,a0,-1798 # 80005f38 <rtable.0+0xa0>
    80000646:	423000ef          	jal	80001268 <bp_panic>
    8000064a:	60a2                	ld	ra,8(sp)
    8000064c:	0141                	addi	sp,sp,16
    8000064e:	8082                	ret

0000000080000650 <m_handle_u_ecall>:
    80000650:	1141                	addi	sp,sp,-16
    80000652:	e406                	sd	ra,8(sp)
    80000654:	c11d                	beqz	a0,8000067a <m_handle_u_ecall+0x2a>
    80000656:	4785                	li	a5,1
    80000658:	04f50463          	beq	a0,a5,800006a0 <m_handle_u_ecall+0x50>
    8000065c:	478d                	li	a5,3
    8000065e:	06f50263          	beq	a0,a5,800006c2 <m_handle_u_ecall+0x72>
    80000662:	4791                	li	a5,4
    80000664:	0af50463          	beq	a0,a5,8000070c <m_handle_u_ecall+0xbc>
    80000668:	31b000ef          	jal	80001182 <bp_hprint_uint64>
    8000066c:	00006517          	auipc	a0,0x6
    80000670:	97c50513          	addi	a0,a0,-1668 # 80005fe8 <rtable.0+0x150>
    80000674:	3f5000ef          	jal	80001268 <bp_panic>
    80000678:	a00d                	j	8000069a <m_handle_u_ecall+0x4a>
    8000067a:	00006517          	auipc	a0,0x6
    8000067e:	8d650513          	addi	a0,a0,-1834 # 80005f50 <rtable.0+0xb8>
    80000682:	365000ef          	jal	800011e6 <bp_print_string>
    80000686:	00008797          	auipc	a5,0x8
    8000068a:	7d27b783          	ld	a5,2002(a5) # 80008e58 <cfg_reg_dcache_mode>
    8000068e:	0007a023          	sw	zero,0(a5)
    80000692:	12000073          	sfence.vma
    80000696:	0000100f          	fence.i
    8000069a:	60a2                	ld	ra,8(sp)
    8000069c:	0141                	addi	sp,sp,16
    8000069e:	8082                	ret
    800006a0:	00006517          	auipc	a0,0x6
    800006a4:	8d050513          	addi	a0,a0,-1840 # 80005f70 <rtable.0+0xd8>
    800006a8:	33f000ef          	jal	800011e6 <bp_print_string>
    800006ac:	00008797          	auipc	a5,0x8
    800006b0:	7ac7b783          	ld	a5,1964(a5) # 80008e58 <cfg_reg_dcache_mode>
    800006b4:	4705                	li	a4,1
    800006b6:	c398                	sw	a4,0(a5)
    800006b8:	12000073          	sfence.vma
    800006bc:	0000100f          	fence.i
    800006c0:	bfe9                	j	8000069a <m_handle_u_ecall+0x4a>
    800006c2:	00006517          	auipc	a0,0x6
    800006c6:	8d650513          	addi	a0,a0,-1834 # 80005f98 <rtable.0+0x100>
    800006ca:	31d000ef          	jal	800011e6 <bp_print_string>
    800006ce:	12000073          	sfence.vma
    800006d2:	0001c697          	auipc	a3,0x1c
    800006d6:	92e68693          	addi	a3,a3,-1746 # 8001c000 <pt+0x1000>
    800006da:	00c6d793          	srli	a5,a3,0xc
    800006de:	07aa                	slli	a5,a5,0xa
    800006e0:	0017e793          	ori	a5,a5,1
    800006e4:	0001b717          	auipc	a4,0x1b
    800006e8:	92f73623          	sd	a5,-1748(a4) # 8001b010 <pt+0x10>
    800006ec:	0001d717          	auipc	a4,0x1d
    800006f0:	91470713          	addi	a4,a4,-1772 # 8001d000 <pt+0x2000>
    800006f4:	00c75793          	srli	a5,a4,0xc
    800006f8:	07aa                	slli	a5,a5,0xa
    800006fa:	0017e793          	ori	a5,a5,1
    800006fe:	ea9c                	sd	a5,16(a3)
    80000700:	201007b7          	lui	a5,0x20100
    80000704:	0cf78793          	addi	a5,a5,207 # 201000cf <_ftext-0x5fefff31>
    80000708:	e31c                	sd	a5,0(a4)
    8000070a:	bf41                	j	8000069a <m_handle_u_ecall+0x4a>
    8000070c:	00006517          	auipc	a0,0x6
    80000710:	8ac50513          	addi	a0,a0,-1876 # 80005fb8 <rtable.0+0x120>
    80000714:	2d3000ef          	jal	800011e6 <bp_print_string>
    80000718:	0001c697          	auipc	a3,0x1c
    8000071c:	8e868693          	addi	a3,a3,-1816 # 8001c000 <pt+0x1000>
    80000720:	00c6d793          	srli	a5,a3,0xc
    80000724:	07aa                	slli	a5,a5,0xa
    80000726:	0017e793          	ori	a5,a5,1
    8000072a:	0001b717          	auipc	a4,0x1b
    8000072e:	8ef73323          	sd	a5,-1818(a4) # 8001b010 <pt+0x10>
    80000732:	0001d717          	auipc	a4,0x1d
    80000736:	8ce70713          	addi	a4,a4,-1842 # 8001d000 <pt+0x2000>
    8000073a:	00c75793          	srli	a5,a4,0xc
    8000073e:	07aa                	slli	a5,a5,0xa
    80000740:	0017e793          	ori	a5,a5,1
    80000744:	ea9c                	sd	a5,16(a3)
    80000746:	201007b7          	lui	a5,0x20100
    8000074a:	0cf78793          	addi	a5,a5,207 # 201000cf <_ftext-0x5fefff31>
    8000074e:	e31c                	sd	a5,0(a4)
    80000750:	b7a9                	j	8000069a <m_handle_u_ecall+0x4a>

0000000080000752 <main>:
    80000752:	7129                	addi	sp,sp,-320
    80000754:	fe06                	sd	ra,312(sp)
    80000756:	e7fff0ef          	jal	800005d4 <m_init_vm>
    8000075a:	00200537          	lui	a0,0x200
    8000075e:	225000ef          	jal	80001182 <bp_hprint_uint64>
    80000762:	4529                	li	a0,10
    80000764:	1ff000ef          	jal	80001162 <bp_cprint>
    80000768:	00008697          	auipc	a3,0x8
    8000076c:	6e86b683          	ld	a3,1768(a3) # 80008e50 <secret>
    80000770:	87b6                	mv	a5,a3
    80000772:	6721                	lui	a4,0x8
    80000774:	9736                	add	a4,a4,a3
    80000776:	0007b023          	sd	zero,0(a5)
    8000077a:	07a1                	addi	a5,a5,8
    8000077c:	fee79de3          	bne	a5,a4,80000776 <main+0x24>
    80000780:	00008797          	auipc	a5,0x8
    80000784:	7187b783          	ld	a5,1816(a5) # 80008e98 <heap_ptr+0x10>
    80000788:	e29c                	sd	a5,0(a3)
    8000078a:	0001b697          	auipc	a3,0x1b
    8000078e:	87668693          	addi	a3,a3,-1930 # 8001b000 <pt>
    80000792:	0001c717          	auipc	a4,0x1c
    80000796:	86e70713          	addi	a4,a4,-1938 # 8001c000 <pt+0x1000>
    8000079a:	00c75793          	srli	a5,a4,0xc
    8000079e:	07aa                	slli	a5,a5,0xa
    800007a0:	0017e793          	ori	a5,a5,1
    800007a4:	ea9c                	sd	a5,16(a3)
    800007a6:	200007b7          	lui	a5,0x20000
    800007aa:	0df78793          	addi	a5,a5,223 # 200000df <_ftext-0x5fffff21>
    800007ae:	e31c                	sd	a5,0(a4)
    800007b0:	200007b7          	lui	a5,0x20000
    800007b4:	0cf78793          	addi	a5,a5,207 # 200000cf <_ftext-0x5fffff31>
    800007b8:	e71c                	sd	a5,8(a4)
    800007ba:	0df00793          	li	a5,223
    800007be:	e29c                	sd	a5,0(a3)
    800007c0:	0001d697          	auipc	a3,0x1d
    800007c4:	84068693          	addi	a3,a3,-1984 # 8001d000 <pt+0x2000>
    800007c8:	00c6d793          	srli	a5,a3,0xc
    800007cc:	07aa                	slli	a5,a5,0xa
    800007ce:	0017e793          	ori	a5,a5,1
    800007d2:	eb1c                	sd	a5,16(a4)
    800007d4:	201007b7          	lui	a5,0x20100
    800007d8:	0df78793          	addi	a5,a5,223 # 201000df <_ftext-0x5fefff21>
    800007dc:	e29c                	sd	a5,0(a3)
    800007de:	4781                	li	a5,0
    800007e0:	00009597          	auipc	a1,0x9
    800007e4:	84058593          	addi	a1,a1,-1984 # 80009020 <thrash_area>
    800007e8:	6641                	lui	a2,0x10
    800007ea:	0ff7f693          	zext.b	a3,a5
    800007ee:	00f58733          	add	a4,a1,a5
    800007f2:	00d70023          	sb	a3,0(a4)
    800007f6:	0407879b          	addiw	a5,a5,64
    800007fa:	fec798e3          	bne	a5,a2,800007ea <main+0x98>
    800007fe:	00006517          	auipc	a0,0x6
    80000802:	80250513          	addi	a0,a0,-2046 # 80006000 <rtable.0+0x168>
    80000806:	1e1000ef          	jal	800011e6 <bp_print_string>
    8000080a:	12800613          	li	a2,296
    8000080e:	4581                	li	a1,0
    80000810:	0028                	addi	a0,sp,8
    80000812:	711000ef          	jal	80001722 <memset>
    80000816:	00000797          	auipc	a5,0x0
    8000081a:	a5e78793          	addi	a5,a5,-1442 # 80000274 <u_test_main>
    8000081e:	ea3e                	sd	a5,272(sp)
    80000820:	40100793          	li	a5,1025
    80000824:	07d6                	slli	a5,a5,0x15
    80000826:	f0078793          	addi	a5,a5,-256
    8000082a:	ec3e                	sd	a5,24(sp)
    8000082c:	0028                	addi	a0,sp,8
    8000082e:	873ff0ef          	jal	800000a0 <pop_tf>
    80000832:	00005517          	auipc	a0,0x5
    80000836:	7e650513          	addi	a0,a0,2022 # 80006018 <rtable.0+0x180>
    8000083a:	22f000ef          	jal	80001268 <bp_panic>
    8000083e:	557d                	li	a0,-1
    80000840:	70f2                	ld	ra,312(sp)
    80000842:	6131                	addi	sp,sp,320
    80000844:	8082                	ret

0000000080000846 <amo_swapw>:
    80000846:	100522af          	lr.w	t0,(a0)
    8000084a:	18b5232f          	sc.w	t1,a1,(a0)
    8000084e:	fe031ce3          	bnez	t1,80000846 <amo_swapw>
    80000852:	8516                	mv	a0,t0
    80000854:	00008067          	ret

0000000080000858 <amo_swapd>:
    80000858:	100532af          	lr.d	t0,(a0)
    8000085c:	18b5332f          	sc.d	t1,a1,(a0)
    80000860:	fe031ce3          	bnez	t1,80000858 <amo_swapd>
    80000864:	8516                	mv	a0,t0
    80000866:	00008067          	ret

000000008000086a <amo_addw>:
    8000086a:	100522af          	lr.w	t0,(a0)
    8000086e:	00b2833b          	addw	t1,t0,a1
    80000872:	1865232f          	sc.w	t1,t1,(a0)
    80000876:	fe031ae3          	bnez	t1,8000086a <amo_addw>
    8000087a:	8516                	mv	a0,t0
    8000087c:	00008067          	ret

0000000080000880 <amo_addd>:
    80000880:	100532af          	lr.d	t0,(a0)
    80000884:	00b28333          	add	t1,t0,a1
    80000888:	1865332f          	sc.d	t1,t1,(a0)
    8000088c:	fe031ae3          	bnez	t1,80000880 <amo_addd>
    80000890:	8516                	mv	a0,t0
    80000892:	00008067          	ret

0000000080000896 <amo_andw>:
    80000896:	100522af          	lr.w	t0,(a0)
    8000089a:	00b2f333          	and	t1,t0,a1
    8000089e:	1865232f          	sc.w	t1,t1,(a0)
    800008a2:	fe031ae3          	bnez	t1,80000896 <amo_andw>
    800008a6:	8516                	mv	a0,t0
    800008a8:	00008067          	ret

00000000800008ac <amo_andd>:
    800008ac:	100532af          	lr.d	t0,(a0)
    800008b0:	00b2f333          	and	t1,t0,a1
    800008b4:	1865332f          	sc.d	t1,t1,(a0)
    800008b8:	fe031ae3          	bnez	t1,800008ac <amo_andd>
    800008bc:	8516                	mv	a0,t0
    800008be:	00008067          	ret

00000000800008c2 <amo_orw>:
    800008c2:	100522af          	lr.w	t0,(a0)
    800008c6:	00b2e333          	or	t1,t0,a1
    800008ca:	1865232f          	sc.w	t1,t1,(a0)
    800008ce:	fe031ae3          	bnez	t1,800008c2 <amo_orw>
    800008d2:	8516                	mv	a0,t0
    800008d4:	00008067          	ret

00000000800008d8 <amo_ord>:
    800008d8:	100532af          	lr.d	t0,(a0)
    800008dc:	00b2e333          	or	t1,t0,a1
    800008e0:	1865332f          	sc.d	t1,t1,(a0)
    800008e4:	fe031ae3          	bnez	t1,800008d8 <amo_ord>
    800008e8:	8516                	mv	a0,t0
    800008ea:	00008067          	ret

00000000800008ee <amo_xorw>:
    800008ee:	100522af          	lr.w	t0,(a0)
    800008f2:	00b2c333          	xor	t1,t0,a1
    800008f6:	1865232f          	sc.w	t1,t1,(a0)
    800008fa:	fe031ae3          	bnez	t1,800008ee <amo_xorw>
    800008fe:	8516                	mv	a0,t0
    80000900:	00008067          	ret

0000000080000904 <amo_xord>:
    80000904:	100532af          	lr.d	t0,(a0)
    80000908:	00b2c333          	xor	t1,t0,a1
    8000090c:	1865332f          	sc.d	t1,t1,(a0)
    80000910:	fe031ae3          	bnez	t1,80000904 <amo_xord>
    80000914:	8516                	mv	a0,t0
    80000916:	00008067          	ret

000000008000091a <amo_maxd>:
    8000091a:	100532af          	lr.d	t0,(a0)
    8000091e:	00b2a333          	slt	t1,t0,a1
    80000922:	40600333          	neg	t1,t1
    80000926:	00b2c3b3          	xor	t2,t0,a1
    8000092a:	00737e33          	and	t3,t1,t2
    8000092e:	01c2ce33          	xor	t3,t0,t3
    80000932:	19c5332f          	sc.d	t1,t3,(a0)
    80000936:	fe0312e3          	bnez	t1,8000091a <amo_maxd>
    8000093a:	8516                	mv	a0,t0
    8000093c:	00008067          	ret

0000000080000940 <amo_maxw>:
    80000940:	100522af          	lr.w	t0,(a0)
    80000944:	00b2a333          	slt	t1,t0,a1
    80000948:	4060033b          	negw	t1,t1
    8000094c:	00b2c3b3          	xor	t2,t0,a1
    80000950:	00737e33          	and	t3,t1,t2
    80000954:	01c2ce33          	xor	t3,t0,t3
    80000958:	19c5232f          	sc.w	t1,t3,(a0)
    8000095c:	fe0312e3          	bnez	t1,80000940 <amo_maxw>
    80000960:	8516                	mv	a0,t0
    80000962:	00008067          	ret

0000000080000966 <amo_maxud>:
    80000966:	100532af          	lr.d	t0,(a0)
    8000096a:	00b2b333          	sltu	t1,t0,a1
    8000096e:	40600333          	neg	t1,t1
    80000972:	00b2c3b3          	xor	t2,t0,a1
    80000976:	00737e33          	and	t3,t1,t2
    8000097a:	01c2ce33          	xor	t3,t0,t3
    8000097e:	19c5332f          	sc.d	t1,t3,(a0)
    80000982:	fe0312e3          	bnez	t1,80000966 <amo_maxud>
    80000986:	8516                	mv	a0,t0
    80000988:	00008067          	ret

000000008000098c <amo_maxuw>:
    8000098c:	100522af          	lr.w	t0,(a0)
    80000990:	00b2b333          	sltu	t1,t0,a1
    80000994:	4060033b          	negw	t1,t1
    80000998:	00b2c3b3          	xor	t2,t0,a1
    8000099c:	00737e33          	and	t3,t1,t2
    800009a0:	01c2ce33          	xor	t3,t0,t3
    800009a4:	19c5232f          	sc.w	t1,t3,(a0)
    800009a8:	fe0312e3          	bnez	t1,8000098c <amo_maxuw>
    800009ac:	8516                	mv	a0,t0
    800009ae:	00008067          	ret

00000000800009b2 <amo_mind>:
    800009b2:	100532af          	lr.d	t0,(a0)
    800009b6:	00b2a333          	slt	t1,t0,a1
    800009ba:	40600333          	neg	t1,t1
    800009be:	00b2c3b3          	xor	t2,t0,a1
    800009c2:	00737e33          	and	t3,t1,t2
    800009c6:	01c5ce33          	xor	t3,a1,t3
    800009ca:	19c5332f          	sc.d	t1,t3,(a0)
    800009ce:	fe0312e3          	bnez	t1,800009b2 <amo_mind>
    800009d2:	8516                	mv	a0,t0
    800009d4:	00008067          	ret

00000000800009d8 <amo_minw>:
    800009d8:	100522af          	lr.w	t0,(a0)
    800009dc:	00b2a333          	slt	t1,t0,a1
    800009e0:	4060033b          	negw	t1,t1
    800009e4:	00b2c3b3          	xor	t2,t0,a1
    800009e8:	00737e33          	and	t3,t1,t2
    800009ec:	01c5ce33          	xor	t3,a1,t3
    800009f0:	19c5232f          	sc.w	t1,t3,(a0)
    800009f4:	fe0312e3          	bnez	t1,800009d8 <amo_minw>
    800009f8:	8516                	mv	a0,t0
    800009fa:	00008067          	ret

00000000800009fe <amo_minud>:
    800009fe:	100532af          	lr.d	t0,(a0)
    80000a02:	00b2b333          	sltu	t1,t0,a1
    80000a06:	40600333          	neg	t1,t1
    80000a0a:	00b2c3b3          	xor	t2,t0,a1
    80000a0e:	00737e33          	and	t3,t1,t2
    80000a12:	01c5ce33          	xor	t3,a1,t3
    80000a16:	19c5332f          	sc.d	t1,t3,(a0)
    80000a1a:	fe0312e3          	bnez	t1,800009fe <amo_minud>
    80000a1e:	8516                	mv	a0,t0
    80000a20:	00008067          	ret

0000000080000a24 <amo_minuw>:
    80000a24:	100522af          	lr.w	t0,(a0)
    80000a28:	00b2b333          	sltu	t1,t0,a1
    80000a2c:	4060033b          	negw	t1,t1
    80000a30:	00b2c3b3          	xor	t2,t0,a1
    80000a34:	00737e33          	and	t3,t1,t2
    80000a38:	01c5ce33          	xor	t3,a1,t3
    80000a3c:	19c5232f          	sc.w	t1,t3,(a0)
    80000a40:	fe0312e3          	bnez	t1,80000a24 <amo_minuw>
    80000a44:	8516                	mv	a0,t0
    80000a46:	00008067          	ret

0000000080000a4a <l2cache_afl>:
    80000a4a:	7139                	addi	sp,sp,-64
    80000a4c:	fc22                	sd	s0,56(sp)
    80000a4e:	0080                	addi	s0,sp,64
    80000a50:	fca43423          	sd	a0,-56(s0)
    80000a54:	fe043423          	sd	zero,-24(s0)
    80000a58:	fe043023          	sd	zero,-32(s0)
    80000a5c:	fc843783          	ld	a5,-56(s0)
    80000a60:	83d1                	srli	a5,a5,0x14
    80000a62:	07f7f793          	andi	a5,a5,127
    80000a66:	fcf43c23          	sd	a5,-40(s0)
    80000a6a:	fc843783          	ld	a5,-56(s0)
    80000a6e:	83d1                	srli	a5,a5,0x14
    80000a70:	8bbd                	andi	a5,a5,15
    80000a72:	fcf43823          	sd	a5,-48(s0)
    80000a76:	fd843783          	ld	a5,-40(s0)
    80000a7a:	07d2                	slli	a5,a5,0x14
    80000a7c:	fe843703          	ld	a4,-24(s0)
    80000a80:	8fd9                	or	a5,a5,a4
    80000a82:	fef43423          	sd	a5,-24(s0)
    80000a86:	fd043783          	ld	a5,-48(s0)
    80000a8a:	07d2                	slli	a5,a5,0x14
    80000a8c:	fe843703          	ld	a4,-24(s0)
    80000a90:	8fd9                	or	a5,a5,a4
    80000a92:	fef43423          	sd	a5,-24(s0)
    80000a96:	fc843783          	ld	a5,-56(s0)
    80000a9a:	fef43023          	sd	a5,-32(s0)
    80000a9e:	fe843783          	ld	a5,-24(s0)
    80000aa2:	fe043703          	ld	a4,-32(s0)
    80000aa6:	e398                	sd	a4,0(a5)
    80000aa8:	0001                	nop
    80000aaa:	7462                	ld	s0,56(sp)
    80000aac:	6121                	addi	sp,sp,64
    80000aae:	8082                	ret

0000000080000ab0 <l2cache_aflinv>:
    80000ab0:	7139                	addi	sp,sp,-64
    80000ab2:	fc22                	sd	s0,56(sp)
    80000ab4:	0080                	addi	s0,sp,64
    80000ab6:	fca43423          	sd	a0,-56(s0)
    80000aba:	fe043423          	sd	zero,-24(s0)
    80000abe:	fe043023          	sd	zero,-32(s0)
    80000ac2:	fc843783          	ld	a5,-56(s0)
    80000ac6:	83d1                	srli	a5,a5,0x14
    80000ac8:	07f7f793          	andi	a5,a5,127
    80000acc:	fcf43c23          	sd	a5,-40(s0)
    80000ad0:	fc843783          	ld	a5,-56(s0)
    80000ad4:	83d1                	srli	a5,a5,0x14
    80000ad6:	8bbd                	andi	a5,a5,15
    80000ad8:	fcf43823          	sd	a5,-48(s0)
    80000adc:	fd843783          	ld	a5,-40(s0)
    80000ae0:	07d2                	slli	a5,a5,0x14
    80000ae2:	fe843703          	ld	a4,-24(s0)
    80000ae6:	8fd9                	or	a5,a5,a4
    80000ae8:	fef43423          	sd	a5,-24(s0)
    80000aec:	fd043783          	ld	a5,-48(s0)
    80000af0:	07d2                	slli	a5,a5,0x14
    80000af2:	fe843703          	ld	a4,-24(s0)
    80000af6:	8fd9                	or	a5,a5,a4
    80000af8:	fef43423          	sd	a5,-24(s0)
    80000afc:	fe843783          	ld	a5,-24(s0)
    80000b00:	0087e793          	ori	a5,a5,8
    80000b04:	fef43423          	sd	a5,-24(s0)
    80000b08:	fc843783          	ld	a5,-56(s0)
    80000b0c:	fef43023          	sd	a5,-32(s0)
    80000b10:	fe843783          	ld	a5,-24(s0)
    80000b14:	fe043703          	ld	a4,-32(s0)
    80000b18:	e398                	sd	a4,0(a5)
    80000b1a:	0001                	nop
    80000b1c:	7462                	ld	s0,56(sp)
    80000b1e:	6121                	addi	sp,sp,64
    80000b20:	8082                	ret

0000000080000b22 <l2cache_ainv>:
    80000b22:	7139                	addi	sp,sp,-64
    80000b24:	fc22                	sd	s0,56(sp)
    80000b26:	0080                	addi	s0,sp,64
    80000b28:	fca43423          	sd	a0,-56(s0)
    80000b2c:	fe043423          	sd	zero,-24(s0)
    80000b30:	fe043023          	sd	zero,-32(s0)
    80000b34:	fc843783          	ld	a5,-56(s0)
    80000b38:	83d1                	srli	a5,a5,0x14
    80000b3a:	07f7f793          	andi	a5,a5,127
    80000b3e:	fcf43c23          	sd	a5,-40(s0)
    80000b42:	fc843783          	ld	a5,-56(s0)
    80000b46:	83d1                	srli	a5,a5,0x14
    80000b48:	8bbd                	andi	a5,a5,15
    80000b4a:	fcf43823          	sd	a5,-48(s0)
    80000b4e:	fd843783          	ld	a5,-40(s0)
    80000b52:	07d2                	slli	a5,a5,0x14
    80000b54:	fe843703          	ld	a4,-24(s0)
    80000b58:	8fd9                	or	a5,a5,a4
    80000b5a:	fef43423          	sd	a5,-24(s0)
    80000b5e:	fd043783          	ld	a5,-48(s0)
    80000b62:	07d2                	slli	a5,a5,0x14
    80000b64:	fe843703          	ld	a4,-24(s0)
    80000b68:	8fd9                	or	a5,a5,a4
    80000b6a:	fef43423          	sd	a5,-24(s0)
    80000b6e:	fe843783          	ld	a5,-24(s0)
    80000b72:	0107e793          	ori	a5,a5,16
    80000b76:	fef43423          	sd	a5,-24(s0)
    80000b7a:	fc843783          	ld	a5,-56(s0)
    80000b7e:	fef43023          	sd	a5,-32(s0)
    80000b82:	fe843783          	ld	a5,-24(s0)
    80000b86:	fe043703          	ld	a4,-32(s0)
    80000b8a:	e398                	sd	a4,0(a5)
    80000b8c:	0001                	nop
    80000b8e:	7462                	ld	s0,56(sp)
    80000b90:	6121                	addi	sp,sp,64
    80000b92:	8082                	ret

0000000080000b94 <l2cache_alock>:
    80000b94:	7139                	addi	sp,sp,-64
    80000b96:	fc22                	sd	s0,56(sp)
    80000b98:	0080                	addi	s0,sp,64
    80000b9a:	fca43423          	sd	a0,-56(s0)
    80000b9e:	fe043423          	sd	zero,-24(s0)
    80000ba2:	fe043023          	sd	zero,-32(s0)
    80000ba6:	fc843783          	ld	a5,-56(s0)
    80000baa:	83d1                	srli	a5,a5,0x14
    80000bac:	07f7f793          	andi	a5,a5,127
    80000bb0:	fcf43c23          	sd	a5,-40(s0)
    80000bb4:	fc843783          	ld	a5,-56(s0)
    80000bb8:	83d1                	srli	a5,a5,0x14
    80000bba:	8bbd                	andi	a5,a5,15
    80000bbc:	fcf43823          	sd	a5,-48(s0)
    80000bc0:	fd843783          	ld	a5,-40(s0)
    80000bc4:	07d2                	slli	a5,a5,0x14
    80000bc6:	fe843703          	ld	a4,-24(s0)
    80000bca:	8fd9                	or	a5,a5,a4
    80000bcc:	fef43423          	sd	a5,-24(s0)
    80000bd0:	fd043783          	ld	a5,-48(s0)
    80000bd4:	07d2                	slli	a5,a5,0x14
    80000bd6:	fe843703          	ld	a4,-24(s0)
    80000bda:	8fd9                	or	a5,a5,a4
    80000bdc:	fef43423          	sd	a5,-24(s0)
    80000be0:	fe843783          	ld	a5,-24(s0)
    80000be4:	0107e793          	ori	a5,a5,16
    80000be8:	fef43423          	sd	a5,-24(s0)
    80000bec:	fc843783          	ld	a5,-56(s0)
    80000bf0:	fef43023          	sd	a5,-32(s0)
    80000bf4:	fe043783          	ld	a5,-32(s0)
    80000bf8:	0017e793          	ori	a5,a5,1
    80000bfc:	fef43023          	sd	a5,-32(s0)
    80000c00:	fe843783          	ld	a5,-24(s0)
    80000c04:	fe043703          	ld	a4,-32(s0)
    80000c08:	e398                	sd	a4,0(a5)
    80000c0a:	0001                	nop
    80000c0c:	7462                	ld	s0,56(sp)
    80000c0e:	6121                	addi	sp,sp,64
    80000c10:	8082                	ret

0000000080000c12 <l2cache_aunlock>:
    80000c12:	7139                	addi	sp,sp,-64
    80000c14:	fc22                	sd	s0,56(sp)
    80000c16:	0080                	addi	s0,sp,64
    80000c18:	fca43423          	sd	a0,-56(s0)
    80000c1c:	fe043423          	sd	zero,-24(s0)
    80000c20:	fe043023          	sd	zero,-32(s0)
    80000c24:	fc843783          	ld	a5,-56(s0)
    80000c28:	83d1                	srli	a5,a5,0x14
    80000c2a:	07f7f793          	andi	a5,a5,127
    80000c2e:	fcf43c23          	sd	a5,-40(s0)
    80000c32:	fc843783          	ld	a5,-56(s0)
    80000c36:	83d1                	srli	a5,a5,0x14
    80000c38:	8bbd                	andi	a5,a5,15
    80000c3a:	fcf43823          	sd	a5,-48(s0)
    80000c3e:	fd843783          	ld	a5,-40(s0)
    80000c42:	07d2                	slli	a5,a5,0x14
    80000c44:	fe843703          	ld	a4,-24(s0)
    80000c48:	8fd9                	or	a5,a5,a4
    80000c4a:	fef43423          	sd	a5,-24(s0)
    80000c4e:	fd043783          	ld	a5,-48(s0)
    80000c52:	07d2                	slli	a5,a5,0x14
    80000c54:	fe843703          	ld	a4,-24(s0)
    80000c58:	8fd9                	or	a5,a5,a4
    80000c5a:	fef43423          	sd	a5,-24(s0)
    80000c5e:	fe843783          	ld	a5,-24(s0)
    80000c62:	0107e793          	ori	a5,a5,16
    80000c66:	fef43423          	sd	a5,-24(s0)
    80000c6a:	fc843783          	ld	a5,-56(s0)
    80000c6e:	fef43023          	sd	a5,-32(s0)
    80000c72:	fe843783          	ld	a5,-24(s0)
    80000c76:	fe043703          	ld	a4,-32(s0)
    80000c7a:	e398                	sd	a4,0(a5)
    80000c7c:	0001                	nop
    80000c7e:	7462                	ld	s0,56(sp)
    80000c80:	6121                	addi	sp,sp,64
    80000c82:	8082                	ret

0000000080000c84 <l2cache_tagfl>:
    80000c84:	711d                	addi	sp,sp,-96
    80000c86:	eca2                	sd	s0,88(sp)
    80000c88:	1080                	addi	s0,sp,96
    80000c8a:	fca43423          	sd	a0,-56(s0)
    80000c8e:	fcb43023          	sd	a1,-64(s0)
    80000c92:	fac43c23          	sd	a2,-72(s0)
    80000c96:	fad43823          	sd	a3,-80(s0)
    80000c9a:	fae43423          	sd	a4,-88(s0)
    80000c9e:	fe043423          	sd	zero,-24(s0)
    80000ca2:	fe043023          	sd	zero,-32(s0)
    80000ca6:	fc043783          	ld	a5,-64(s0)
    80000caa:	0791                	addi	a5,a5,4
    80000cac:	fcf43c23          	sd	a5,-40(s0)
    80000cb0:	fc843783          	ld	a5,-56(s0)
    80000cb4:	07d2                	slli	a5,a5,0x14
    80000cb6:	fe843703          	ld	a4,-24(s0)
    80000cba:	8fd9                	or	a5,a5,a4
    80000cbc:	fef43423          	sd	a5,-24(s0)
    80000cc0:	fd843783          	ld	a5,-40(s0)
    80000cc4:	07d2                	slli	a5,a5,0x14
    80000cc6:	fe843703          	ld	a4,-24(s0)
    80000cca:	8fd9                	or	a5,a5,a4
    80000ccc:	fef43423          	sd	a5,-24(s0)
    80000cd0:	fb843783          	ld	a5,-72(s0)
    80000cd4:	07c6                	slli	a5,a5,0x11
    80000cd6:	fe843703          	ld	a4,-24(s0)
    80000cda:	8fd9                	or	a5,a5,a4
    80000cdc:	fef43423          	sd	a5,-24(s0)
    80000ce0:	fb043783          	ld	a5,-80(s0)
    80000ce4:	07ba                	slli	a5,a5,0xe
    80000ce6:	fe843703          	ld	a4,-24(s0)
    80000cea:	8fd9                	or	a5,a5,a4
    80000cec:	fef43423          	sd	a5,-24(s0)
    80000cf0:	fa843783          	ld	a5,-88(s0)
    80000cf4:	079a                	slli	a5,a5,0x6
    80000cf6:	fe843703          	ld	a4,-24(s0)
    80000cfa:	8fd9                	or	a5,a5,a4
    80000cfc:	fef43423          	sd	a5,-24(s0)
    80000d00:	fe843783          	ld	a5,-24(s0)
    80000d04:	0207e793          	ori	a5,a5,32
    80000d08:	fef43423          	sd	a5,-24(s0)
    80000d0c:	fe043023          	sd	zero,-32(s0)
    80000d10:	fe843783          	ld	a5,-24(s0)
    80000d14:	fe043703          	ld	a4,-32(s0)
    80000d18:	e398                	sd	a4,0(a5)
    80000d1a:	0001                	nop
    80000d1c:	6466                	ld	s0,88(sp)
    80000d1e:	6125                	addi	sp,sp,96
    80000d20:	8082                	ret

0000000080000d22 <l2cache_taglv>:
    80000d22:	711d                	addi	sp,sp,-96
    80000d24:	eca2                	sd	s0,88(sp)
    80000d26:	1080                	addi	s0,sp,96
    80000d28:	fca43423          	sd	a0,-56(s0)
    80000d2c:	fcb43023          	sd	a1,-64(s0)
    80000d30:	fac43c23          	sd	a2,-72(s0)
    80000d34:	fad43823          	sd	a3,-80(s0)
    80000d38:	fae43423          	sd	a4,-88(s0)
    80000d3c:	fe043423          	sd	zero,-24(s0)
    80000d40:	fe043023          	sd	zero,-32(s0)
    80000d44:	fc043783          	ld	a5,-64(s0)
    80000d48:	0791                	addi	a5,a5,4
    80000d4a:	fcf43c23          	sd	a5,-40(s0)
    80000d4e:	fc843783          	ld	a5,-56(s0)
    80000d52:	07d2                	slli	a5,a5,0x14
    80000d54:	fe843703          	ld	a4,-24(s0)
    80000d58:	8fd9                	or	a5,a5,a4
    80000d5a:	fef43423          	sd	a5,-24(s0)
    80000d5e:	fd843783          	ld	a5,-40(s0)
    80000d62:	07d2                	slli	a5,a5,0x14
    80000d64:	fe843703          	ld	a4,-24(s0)
    80000d68:	8fd9                	or	a5,a5,a4
    80000d6a:	fef43423          	sd	a5,-24(s0)
    80000d6e:	fb843783          	ld	a5,-72(s0)
    80000d72:	07c6                	slli	a5,a5,0x11
    80000d74:	fe843703          	ld	a4,-24(s0)
    80000d78:	8fd9                	or	a5,a5,a4
    80000d7a:	fef43423          	sd	a5,-24(s0)
    80000d7e:	fb043783          	ld	a5,-80(s0)
    80000d82:	07ba                	slli	a5,a5,0xe
    80000d84:	fe843703          	ld	a4,-24(s0)
    80000d88:	8fd9                	or	a5,a5,a4
    80000d8a:	fef43423          	sd	a5,-24(s0)
    80000d8e:	fa843783          	ld	a5,-88(s0)
    80000d92:	079a                	slli	a5,a5,0x6
    80000d94:	fe843703          	ld	a4,-24(s0)
    80000d98:	8fd9                	or	a5,a5,a4
    80000d9a:	fef43423          	sd	a5,-24(s0)
    80000d9e:	fe843783          	ld	a5,-24(s0)
    80000da2:	0287e793          	ori	a5,a5,40
    80000da6:	fef43423          	sd	a5,-24(s0)
    80000daa:	fe043023          	sd	zero,-32(s0)
    80000dae:	fe843783          	ld	a5,-24(s0)
    80000db2:	fe043703          	ld	a4,-32(s0)
    80000db6:	e398                	sd	a4,0(a5)
    80000db8:	0001                	nop
    80000dba:	6466                	ld	s0,88(sp)
    80000dbc:	6125                	addi	sp,sp,96
    80000dbe:	8082                	ret

0000000080000dc0 <l2cache_tagla>:
    80000dc0:	711d                	addi	sp,sp,-96
    80000dc2:	eca2                	sd	s0,88(sp)
    80000dc4:	1080                	addi	s0,sp,96
    80000dc6:	fca43423          	sd	a0,-56(s0)
    80000dca:	fcb43023          	sd	a1,-64(s0)
    80000dce:	fac43c23          	sd	a2,-72(s0)
    80000dd2:	fad43823          	sd	a3,-80(s0)
    80000dd6:	fae43423          	sd	a4,-88(s0)
    80000dda:	fe043423          	sd	zero,-24(s0)
    80000dde:	fe043023          	sd	zero,-32(s0)
    80000de2:	fc043783          	ld	a5,-64(s0)
    80000de6:	0791                	addi	a5,a5,4
    80000de8:	fcf43c23          	sd	a5,-40(s0)
    80000dec:	fc843783          	ld	a5,-56(s0)
    80000df0:	07d2                	slli	a5,a5,0x14
    80000df2:	fe843703          	ld	a4,-24(s0)
    80000df6:	8fd9                	or	a5,a5,a4
    80000df8:	fef43423          	sd	a5,-24(s0)
    80000dfc:	fd843783          	ld	a5,-40(s0)
    80000e00:	07d2                	slli	a5,a5,0x14
    80000e02:	fe843703          	ld	a4,-24(s0)
    80000e06:	8fd9                	or	a5,a5,a4
    80000e08:	fef43423          	sd	a5,-24(s0)
    80000e0c:	fb843783          	ld	a5,-72(s0)
    80000e10:	07c6                	slli	a5,a5,0x11
    80000e12:	fe843703          	ld	a4,-24(s0)
    80000e16:	8fd9                	or	a5,a5,a4
    80000e18:	fef43423          	sd	a5,-24(s0)
    80000e1c:	fb043783          	ld	a5,-80(s0)
    80000e20:	07ba                	slli	a5,a5,0xe
    80000e22:	fe843703          	ld	a4,-24(s0)
    80000e26:	8fd9                	or	a5,a5,a4
    80000e28:	fef43423          	sd	a5,-24(s0)
    80000e2c:	fa843783          	ld	a5,-88(s0)
    80000e30:	079a                	slli	a5,a5,0x6
    80000e32:	fe843703          	ld	a4,-24(s0)
    80000e36:	8fd9                	or	a5,a5,a4
    80000e38:	fef43423          	sd	a5,-24(s0)
    80000e3c:	fe843783          	ld	a5,-24(s0)
    80000e40:	0307e793          	ori	a5,a5,48
    80000e44:	fef43423          	sd	a5,-24(s0)
    80000e48:	fe043023          	sd	zero,-32(s0)
    80000e4c:	fe843783          	ld	a5,-24(s0)
    80000e50:	fe043703          	ld	a4,-32(s0)
    80000e54:	e398                	sd	a4,0(a5)
    80000e56:	0001                	nop
    80000e58:	6466                	ld	s0,88(sp)
    80000e5a:	6125                	addi	sp,sp,96
    80000e5c:	8082                	ret

0000000080000e5e <l2cache_tagst>:
    80000e5e:	711d                	addi	sp,sp,-96
    80000e60:	eca2                	sd	s0,88(sp)
    80000e62:	1080                	addi	s0,sp,96
    80000e64:	fca43423          	sd	a0,-56(s0)
    80000e68:	fcb43023          	sd	a1,-64(s0)
    80000e6c:	fac43c23          	sd	a2,-72(s0)
    80000e70:	fad43823          	sd	a3,-80(s0)
    80000e74:	fae43423          	sd	a4,-88(s0)
    80000e78:	faf43023          	sd	a5,-96(s0)
    80000e7c:	fe043423          	sd	zero,-24(s0)
    80000e80:	fe043023          	sd	zero,-32(s0)
    80000e84:	fc043783          	ld	a5,-64(s0)
    80000e88:	0791                	addi	a5,a5,4
    80000e8a:	fcf43c23          	sd	a5,-40(s0)
    80000e8e:	fc843783          	ld	a5,-56(s0)
    80000e92:	07d2                	slli	a5,a5,0x14
    80000e94:	fe843703          	ld	a4,-24(s0)
    80000e98:	8fd9                	or	a5,a5,a4
    80000e9a:	fef43423          	sd	a5,-24(s0)
    80000e9e:	fd843783          	ld	a5,-40(s0)
    80000ea2:	07d2                	slli	a5,a5,0x14
    80000ea4:	fe843703          	ld	a4,-24(s0)
    80000ea8:	8fd9                	or	a5,a5,a4
    80000eaa:	fef43423          	sd	a5,-24(s0)
    80000eae:	fb843783          	ld	a5,-72(s0)
    80000eb2:	07c6                	slli	a5,a5,0x11
    80000eb4:	fe843703          	ld	a4,-24(s0)
    80000eb8:	8fd9                	or	a5,a5,a4
    80000eba:	fef43423          	sd	a5,-24(s0)
    80000ebe:	fb043783          	ld	a5,-80(s0)
    80000ec2:	07ba                	slli	a5,a5,0xe
    80000ec4:	fe843703          	ld	a4,-24(s0)
    80000ec8:	8fd9                	or	a5,a5,a4
    80000eca:	fef43423          	sd	a5,-24(s0)
    80000ece:	fa843783          	ld	a5,-88(s0)
    80000ed2:	079a                	slli	a5,a5,0x6
    80000ed4:	fe843703          	ld	a4,-24(s0)
    80000ed8:	8fd9                	or	a5,a5,a4
    80000eda:	fef43423          	sd	a5,-24(s0)
    80000ede:	fe843783          	ld	a5,-24(s0)
    80000ee2:	0307e793          	ori	a5,a5,48
    80000ee6:	fef43423          	sd	a5,-24(s0)
    80000eea:	fa043783          	ld	a5,-96(s0)
    80000eee:	fef43023          	sd	a5,-32(s0)
    80000ef2:	fe843783          	ld	a5,-24(s0)
    80000ef6:	fe043703          	ld	a4,-32(s0)
    80000efa:	e398                	sd	a4,0(a5)
    80000efc:	0001                	nop
    80000efe:	6466                	ld	s0,88(sp)
    80000f00:	6125                	addi	sp,sp,96
    80000f02:	8082                	ret

0000000080000f04 <register_trap_handler>:
    80000f04:	7179                	addi	sp,sp,-48
    80000f06:	f422                	sd	s0,40(sp)
    80000f08:	1800                	addi	s0,sp,48
    80000f0a:	fca43c23          	sd	a0,-40(s0)
    80000f0e:	fcb43823          	sd	a1,-48(s0)
    80000f12:	fd043783          	ld	a5,-48(s0)
    80000f16:	fef42623          	sw	a5,-20(s0)
    80000f1a:	fd043783          	ld	a5,-48(s0)
    80000f1e:	fff7c793          	not	a5,a5
    80000f22:	93fd                	srli	a5,a5,0x3f
    80000f24:	0ff7f793          	zext.b	a5,a5
    80000f28:	fef42423          	sw	a5,-24(s0)
    80000f2c:	fe842783          	lw	a5,-24(s0)
    80000f30:	2781                	sext.w	a5,a5
    80000f32:	c79d                	beqz	a5,80000f60 <register_trap_handler+0x5c>
    80000f34:	fec42783          	lw	a5,-20(s0)
    80000f38:	0007871b          	sext.w	a4,a5
    80000f3c:	47bd                	li	a5,15
    80000f3e:	00e7ef63          	bltu	a5,a4,80000f5c <register_trap_handler+0x58>
    80000f42:	00007717          	auipc	a4,0x7
    80000f46:	1ae70713          	addi	a4,a4,430 # 800080f0 <exception_handler>
    80000f4a:	fec46783          	lwu	a5,-20(s0)
    80000f4e:	078e                	slli	a5,a5,0x3
    80000f50:	97ba                	add	a5,a5,a4
    80000f52:	fd843703          	ld	a4,-40(s0)
    80000f56:	e398                	sd	a4,0(a5)
    80000f58:	4781                	li	a5,0
    80000f5a:	a805                	j	80000f8a <register_trap_handler+0x86>
    80000f5c:	57fd                	li	a5,-1
    80000f5e:	a035                	j	80000f8a <register_trap_handler+0x86>
    80000f60:	fec42783          	lw	a5,-20(s0)
    80000f64:	0007871b          	sext.w	a4,a5
    80000f68:	47ad                	li	a5,11
    80000f6a:	00e7ef63          	bltu	a5,a4,80000f88 <register_trap_handler+0x84>
    80000f6e:	00007717          	auipc	a4,0x7
    80000f72:	20270713          	addi	a4,a4,514 # 80008170 <interrupt_handler>
    80000f76:	fec46783          	lwu	a5,-20(s0)
    80000f7a:	078e                	slli	a5,a5,0x3
    80000f7c:	97ba                	add	a5,a5,a4
    80000f7e:	fd843703          	ld	a4,-40(s0)
    80000f82:	e398                	sd	a4,0(a5)
    80000f84:	4781                	li	a5,0
    80000f86:	a011                	j	80000f8a <register_trap_handler+0x86>
    80000f88:	57fd                	li	a5,-1
    80000f8a:	853e                	mv	a0,a5
    80000f8c:	7422                	ld	s0,40(sp)
    80000f8e:	6145                	addi	sp,sp,48
    80000f90:	8082                	ret

0000000080000f92 <bp_trap_handler>:
    80000f92:	7139                	addi	sp,sp,-64
    80000f94:	fc06                	sd	ra,56(sp)
    80000f96:	f822                	sd	s0,48(sp)
    80000f98:	0080                	addi	s0,sp,64
    80000f9a:	fca43c23          	sd	a0,-40(s0)
    80000f9e:	fcb43823          	sd	a1,-48(s0)
    80000fa2:	fcc43423          	sd	a2,-56(s0)
    80000fa6:	fd043783          	ld	a5,-48(s0)
    80000faa:	93fd                	srli	a5,a5,0x3f
    80000fac:	0ff7f793          	zext.b	a5,a5
    80000fb0:	fef42623          	sw	a5,-20(s0)
    80000fb4:	fd043783          	ld	a5,-48(s0)
    80000fb8:	fef42423          	sw	a5,-24(s0)
    80000fbc:	fec42783          	lw	a5,-20(s0)
    80000fc0:	2781                	sext.w	a5,a5
    80000fc2:	c7b9                	beqz	a5,80001010 <bp_trap_handler+0x7e>
    80000fc4:	fe842783          	lw	a5,-24(s0)
    80000fc8:	2781                	sext.w	a5,a5
    80000fca:	0207ca63          	bltz	a5,80000ffe <bp_trap_handler+0x6c>
    80000fce:	fe842783          	lw	a5,-24(s0)
    80000fd2:	0007871b          	sext.w	a4,a5
    80000fd6:	47ad                	li	a5,11
    80000fd8:	02e7c363          	blt	a5,a4,80000ffe <bp_trap_handler+0x6c>
    80000fdc:	00007717          	auipc	a4,0x7
    80000fe0:	19470713          	addi	a4,a4,404 # 80008170 <interrupt_handler>
    80000fe4:	fe842783          	lw	a5,-24(s0)
    80000fe8:	078e                	slli	a5,a5,0x3
    80000fea:	97ba                	add	a5,a5,a4
    80000fec:	639c                	ld	a5,0(a5)
    80000fee:	fc843603          	ld	a2,-56(s0)
    80000ff2:	fd043583          	ld	a1,-48(s0)
    80000ff6:	fd843503          	ld	a0,-40(s0)
    80000ffa:	9782                	jalr	a5
    80000ffc:	a085                	j	8000105c <bp_trap_handler+0xca>
    80000ffe:	fc843603          	ld	a2,-56(s0)
    80001002:	fd043583          	ld	a1,-48(s0)
    80001006:	fd843503          	ld	a0,-40(s0)
    8000100a:	4f8000ef          	jal	80001502 <bp_unhandled_trap_abort>
    8000100e:	a0b9                	j	8000105c <bp_trap_handler+0xca>
    80001010:	fe842783          	lw	a5,-24(s0)
    80001014:	2781                	sext.w	a5,a5
    80001016:	0207ca63          	bltz	a5,8000104a <bp_trap_handler+0xb8>
    8000101a:	fe842783          	lw	a5,-24(s0)
    8000101e:	0007871b          	sext.w	a4,a5
    80001022:	47bd                	li	a5,15
    80001024:	02e7c363          	blt	a5,a4,8000104a <bp_trap_handler+0xb8>
    80001028:	00007717          	auipc	a4,0x7
    8000102c:	0c870713          	addi	a4,a4,200 # 800080f0 <exception_handler>
    80001030:	fe842783          	lw	a5,-24(s0)
    80001034:	078e                	slli	a5,a5,0x3
    80001036:	97ba                	add	a5,a5,a4
    80001038:	639c                	ld	a5,0(a5)
    8000103a:	fc843603          	ld	a2,-56(s0)
    8000103e:	fd043583          	ld	a1,-48(s0)
    80001042:	fd843503          	ld	a0,-40(s0)
    80001046:	9782                	jalr	a5
    80001048:	a811                	j	8000105c <bp_trap_handler+0xca>
    8000104a:	fc843603          	ld	a2,-56(s0)
    8000104e:	fd043583          	ld	a1,-48(s0)
    80001052:	fd843503          	ld	a0,-40(s0)
    80001056:	4ac000ef          	jal	80001502 <bp_unhandled_trap_abort>
    8000105a:	a009                	j	8000105c <bp_trap_handler+0xca>
    8000105c:	0001                	nop
    8000105e:	70e2                	ld	ra,56(sp)
    80001060:	7442                	ld	s0,48(sp)
    80001062:	6121                	addi	sp,sp,64
    80001064:	8082                	ret

0000000080001066 <dramfs_fs_init>:
    80001066:	1141                	addi	sp,sp,-16
    80001068:	e422                	sd	s0,8(sp)
    8000106a:	0800                	addi	s0,sp,16
    8000106c:	4781                	li	a5,0
    8000106e:	853e                	mv	a0,a5
    80001070:	6422                	ld	s0,8(sp)
    80001072:	0141                	addi	sp,sp,16
    80001074:	8082                	ret

0000000080001076 <bp_get_hart>:
    80001076:	1101                	addi	sp,sp,-32
    80001078:	ec22                	sd	s0,24(sp)
    8000107a:	1000                	addi	s0,sp,32
    8000107c:	f14027f3          	csrr	a5,mhartid
    80001080:	fef43423          	sd	a5,-24(s0)
    80001084:	fe843783          	ld	a5,-24(s0)
    80001088:	853e                	mv	a0,a5
    8000108a:	6462                	ld	s0,24(sp)
    8000108c:	6105                	addi	sp,sp,32
    8000108e:	8082                	ret

0000000080001090 <bp_barrier_end>:
    80001090:	7179                	addi	sp,sp,-48
    80001092:	f406                	sd	ra,40(sp)
    80001094:	f022                	sd	s0,32(sp)
    80001096:	1800                	addi	s0,sp,48
    80001098:	fca43c23          	sd	a0,-40(s0)
    8000109c:	fcb43823          	sd	a1,-48(s0)
    800010a0:	4785                	li	a5,1
    800010a2:	fef43423          	sd	a5,-24(s0)
    800010a6:	fd843783          	ld	a5,-40(s0)
    800010aa:	fe843703          	ld	a4,-24(s0)
    800010ae:	00e7b7af          	amoadd.d	a5,a4,(a5)
    800010b2:	fef43023          	sd	a5,-32(s0)
    800010b6:	0001                	nop
    800010b8:	fd843783          	ld	a5,-40(s0)
    800010bc:	639c                	ld	a5,0(a5)
    800010be:	fd043703          	ld	a4,-48(s0)
    800010c2:	fee7ebe3          	bltu	a5,a4,800010b8 <bp_barrier_end+0x28>
    800010c6:	4501                	li	a0,0
    800010c8:	00e000ef          	jal	800010d6 <bp_finish>
    800010cc:	0001                	nop
    800010ce:	70a2                	ld	ra,40(sp)
    800010d0:	7402                	ld	s0,32(sp)
    800010d2:	6145                	addi	sp,sp,48
    800010d4:	8082                	ret

00000000800010d6 <bp_finish>:
    800010d6:	7179                	addi	sp,sp,-48
    800010d8:	f406                	sd	ra,40(sp)
    800010da:	f022                	sd	s0,32(sp)
    800010dc:	1800                	addi	s0,sp,48
    800010de:	87aa                	mv	a5,a0
    800010e0:	fcf40fa3          	sb	a5,-33(s0)
    800010e4:	f93ff0ef          	jal	80001076 <bp_get_hart>
    800010e8:	fea43423          	sd	a0,-24(s0)
    800010ec:	fe843783          	ld	a5,-24(s0)
    800010f0:	00379713          	slli	a4,a5,0x3
    800010f4:	001027b7          	lui	a5,0x102
    800010f8:	97ba                	add	a5,a5,a4
    800010fa:	fdf44703          	lbu	a4,-33(s0)
    800010fe:	00e78023          	sb	a4,0(a5) # 102000 <_ftext-0x7fefe000>
    80001102:	0ff0000f          	fence
    80001106:	a001                	j	80001106 <bp_finish+0x30>

0000000080001108 <bp_hprint>:
    80001108:	1101                	addi	sp,sp,-32
    8000110a:	ec06                	sd	ra,24(sp)
    8000110c:	e822                	sd	s0,16(sp)
    8000110e:	1000                	addi	s0,sp,32
    80001110:	87aa                	mv	a5,a0
    80001112:	fef407a3          	sb	a5,-17(s0)
    80001116:	fef44783          	lbu	a5,-17(s0)
    8000111a:	0ff7f713          	zext.b	a4,a5
    8000111e:	47a5                	li	a5,9
    80001120:	00e7ec63          	bltu	a5,a4,80001138 <bp_hprint+0x30>
    80001124:	fef44783          	lbu	a5,-17(s0)
    80001128:	0307879b          	addiw	a5,a5,48
    8000112c:	0ff7f793          	zext.b	a5,a5
    80001130:	853e                	mv	a0,a5
    80001132:	030000ef          	jal	80001162 <bp_cprint>
    80001136:	a00d                	j	80001158 <bp_hprint+0x50>
    80001138:	fef44783          	lbu	a5,-17(s0)
    8000113c:	0ff7f713          	zext.b	a4,a5
    80001140:	47bd                	li	a5,15
    80001142:	00e7eb63          	bltu	a5,a4,80001158 <bp_hprint+0x50>
    80001146:	fef44783          	lbu	a5,-17(s0)
    8000114a:	0577879b          	addiw	a5,a5,87
    8000114e:	0ff7f793          	zext.b	a5,a5
    80001152:	853e                	mv	a0,a5
    80001154:	00e000ef          	jal	80001162 <bp_cprint>
    80001158:	0001                	nop
    8000115a:	60e2                	ld	ra,24(sp)
    8000115c:	6442                	ld	s0,16(sp)
    8000115e:	6105                	addi	sp,sp,32
    80001160:	8082                	ret

0000000080001162 <bp_cprint>:
    80001162:	1101                	addi	sp,sp,-32
    80001164:	ec22                	sd	s0,24(sp)
    80001166:	1000                	addi	s0,sp,32
    80001168:	87aa                	mv	a5,a0
    8000116a:	fef407a3          	sb	a5,-17(s0)
    8000116e:	001017b7          	lui	a5,0x101
    80001172:	fef44703          	lbu	a4,-17(s0)
    80001176:	00e78023          	sb	a4,0(a5) # 101000 <_ftext-0x7feff000>
    8000117a:	0001                	nop
    8000117c:	6462                	ld	s0,24(sp)
    8000117e:	6105                	addi	sp,sp,32
    80001180:	8082                	ret

0000000080001182 <bp_hprint_uint64>:
    80001182:	7179                	addi	sp,sp,-48
    80001184:	f406                	sd	ra,40(sp)
    80001186:	f022                	sd	s0,32(sp)
    80001188:	1800                	addi	s0,sp,48
    8000118a:	fca43c23          	sd	a0,-40(s0)
    8000118e:	03000513          	li	a0,48
    80001192:	fd1ff0ef          	jal	80001162 <bp_cprint>
    80001196:	07800513          	li	a0,120
    8000119a:	fc9ff0ef          	jal	80001162 <bp_cprint>
    8000119e:	fe042623          	sw	zero,-20(s0)
    800011a2:	a02d                	j	800011cc <bp_hprint_uint64+0x4a>
    800011a4:	fd843783          	ld	a5,-40(s0)
    800011a8:	93f1                	srli	a5,a5,0x3c
    800011aa:	fef405a3          	sb	a5,-21(s0)
    800011ae:	feb44783          	lbu	a5,-21(s0)
    800011b2:	853e                	mv	a0,a5
    800011b4:	f55ff0ef          	jal	80001108 <bp_hprint>
    800011b8:	fd843783          	ld	a5,-40(s0)
    800011bc:	0792                	slli	a5,a5,0x4
    800011be:	fcf43c23          	sd	a5,-40(s0)
    800011c2:	fec42783          	lw	a5,-20(s0)
    800011c6:	2785                	addiw	a5,a5,1
    800011c8:	fef42623          	sw	a5,-20(s0)
    800011cc:	fec42783          	lw	a5,-20(s0)
    800011d0:	0007871b          	sext.w	a4,a5
    800011d4:	47bd                	li	a5,15
    800011d6:	fce7d7e3          	bge	a5,a4,800011a4 <bp_hprint_uint64+0x22>
    800011da:	0001                	nop
    800011dc:	0001                	nop
    800011de:	70a2                	ld	ra,40(sp)
    800011e0:	7402                	ld	s0,32(sp)
    800011e2:	6145                	addi	sp,sp,48
    800011e4:	8082                	ret

00000000800011e6 <bp_print_string>:
    800011e6:	1101                	addi	sp,sp,-32
    800011e8:	ec06                	sd	ra,24(sp)
    800011ea:	e822                	sd	s0,16(sp)
    800011ec:	1000                	addi	s0,sp,32
    800011ee:	fea43423          	sd	a0,-24(s0)
    800011f2:	a829                	j	8000120c <bp_print_string+0x26>
    800011f4:	fe843783          	ld	a5,-24(s0)
    800011f8:	0007c783          	lbu	a5,0(a5)
    800011fc:	853e                	mv	a0,a5
    800011fe:	f65ff0ef          	jal	80001162 <bp_cprint>
    80001202:	fe843783          	ld	a5,-24(s0)
    80001206:	0785                	addi	a5,a5,1
    80001208:	fef43423          	sd	a5,-24(s0)
    8000120c:	fe843783          	ld	a5,-24(s0)
    80001210:	0007c783          	lbu	a5,0(a5)
    80001214:	f3e5                	bnez	a5,800011f4 <bp_print_string+0xe>
    80001216:	0001                	nop
    80001218:	0001                	nop
    8000121a:	60e2                	ld	ra,24(sp)
    8000121c:	6442                	ld	s0,16(sp)
    8000121e:	6105                	addi	sp,sp,32
    80001220:	8082                	ret

0000000080001222 <bp_cget>:
    80001222:	1101                	addi	sp,sp,-32
    80001224:	ec22                	sd	s0,24(sp)
    80001226:	1000                	addi	s0,sp,32
    80001228:	001007b7          	lui	a5,0x100
    8000122c:	0007c783          	lbu	a5,0(a5) # 100000 <_ftext-0x7ff00000>
    80001230:	fef407a3          	sb	a5,-17(s0)
    80001234:	fef44783          	lbu	a5,-17(s0)
    80001238:	0ff7f713          	zext.b	a4,a5
    8000123c:	0ff00793          	li	a5,255
    80001240:	00f71463          	bne	a4,a5,80001248 <bp_cget+0x26>
    80001244:	57fd                	li	a5,-1
    80001246:	a829                	j	80001260 <bp_cget+0x3e>
    80001248:	fef44783          	lbu	a5,-17(s0)
    8000124c:	0ff7f713          	zext.b	a4,a5
    80001250:	47b5                	li	a5,13
    80001252:	00f71463          	bne	a4,a5,8000125a <bp_cget+0x38>
    80001256:	47a9                	li	a5,10
    80001258:	a021                	j	80001260 <bp_cget+0x3e>
    8000125a:	fef44783          	lbu	a5,-17(s0)
    8000125e:	2781                	sext.w	a5,a5
    80001260:	853e                	mv	a0,a5
    80001262:	6462                	ld	s0,24(sp)
    80001264:	6105                	addi	sp,sp,32
    80001266:	8082                	ret

0000000080001268 <bp_panic>:
    80001268:	1101                	addi	sp,sp,-32
    8000126a:	ec06                	sd	ra,24(sp)
    8000126c:	e822                	sd	s0,16(sp)
    8000126e:	1000                	addi	s0,sp,32
    80001270:	fea43423          	sd	a0,-24(s0)
    80001274:	fe843783          	ld	a5,-24(s0)
    80001278:	c789                	beqz	a5,80001282 <bp_panic+0x1a>
    8000127a:	fe843503          	ld	a0,-24(s0)
    8000127e:	f69ff0ef          	jal	800011e6 <bp_print_string>
    80001282:	4505                	li	a0,1
    80001284:	e53ff0ef          	jal	800010d6 <bp_finish>
    80001288:	a001                	j	80001288 <bp_panic+0x20>

000000008000128a <bp_param_get>:
    8000128a:	1101                	addi	sp,sp,-32
    8000128c:	ec22                	sd	s0,24(sp)
    8000128e:	1000                	addi	s0,sp,32
    80001290:	fea43423          	sd	a0,-24(s0)
    80001294:	fe843783          	ld	a5,-24(s0)
    80001298:	439c                	lw	a5,0(a5)
    8000129a:	2781                	sext.w	a5,a5
    8000129c:	853e                	mv	a0,a5
    8000129e:	6462                	ld	s0,24(sp)
    800012a0:	6105                	addi	sp,sp,32
    800012a2:	8082                	ret

00000000800012a4 <dramfs_init>:
    800012a4:	1141                	addi	sp,sp,-16
    800012a6:	e406                	sd	ra,8(sp)
    800012a8:	e022                	sd	s0,0(sp)
    800012aa:	0800                	addi	s0,sp,16
    800012ac:	00008317          	auipc	t1,0x8
    800012b0:	b8c33303          	ld	t1,-1140(t1) # 80008e38 <_GLOBAL_OFFSET_TABLE_+0x8>
    800012b4:	9302                	jalr	t1
    800012b6:	87aa                	mv	a5,a0
    800012b8:	0007d563          	bgez	a5,800012c2 <dramfs_init+0x1e>
    800012bc:	557d                	li	a0,-1
    800012be:	179030ef          	jal	80004c36 <exit>
    800012c2:	0001                	nop
    800012c4:	60a2                	ld	ra,8(sp)
    800012c6:	6402                	ld	s0,0(sp)
    800012c8:	0141                	addi	sp,sp,16
    800012ca:	8082                	ret

00000000800012cc <dramfs_exit>:
    800012cc:	1101                	addi	sp,sp,-32
    800012ce:	ec06                	sd	ra,24(sp)
    800012d0:	e822                	sd	s0,16(sp)
    800012d2:	1000                	addi	s0,sp,32
    800012d4:	87aa                	mv	a5,a0
    800012d6:	fef42623          	sw	a5,-20(s0)
    800012da:	fec42783          	lw	a5,-20(s0)
    800012de:	0ff7f793          	zext.b	a5,a5
    800012e2:	853e                	mv	a0,a5
    800012e4:	df3ff0ef          	jal	800010d6 <bp_finish>
    800012e8:	0001                	nop
    800012ea:	60e2                	ld	ra,24(sp)
    800012ec:	6442                	ld	s0,16(sp)
    800012ee:	6105                	addi	sp,sp,32
    800012f0:	8082                	ret

00000000800012f2 <dramfs_sendchar>:
    800012f2:	1101                	addi	sp,sp,-32
    800012f4:	ec06                	sd	ra,24(sp)
    800012f6:	e822                	sd	s0,16(sp)
    800012f8:	1000                	addi	s0,sp,32
    800012fa:	87aa                	mv	a5,a0
    800012fc:	fef407a3          	sb	a5,-17(s0)
    80001300:	fef44783          	lbu	a5,-17(s0)
    80001304:	853e                	mv	a0,a5
    80001306:	e5dff0ef          	jal	80001162 <bp_cprint>
    8000130a:	0001                	nop
    8000130c:	60e2                	ld	ra,24(sp)
    8000130e:	6442                	ld	s0,16(sp)
    80001310:	6105                	addi	sp,sp,32
    80001312:	8082                	ret

0000000080001314 <dramfs_getchar>:
    80001314:	1141                	addi	sp,sp,-16
    80001316:	e406                	sd	ra,8(sp)
    80001318:	e022                	sd	s0,0(sp)
    8000131a:	0800                	addi	s0,sp,16
    8000131c:	f07ff0ef          	jal	80001222 <bp_cget>
    80001320:	87aa                	mv	a5,a0
    80001322:	853e                	mv	a0,a5
    80001324:	60a2                	ld	ra,8(sp)
    80001326:	6402                	ld	s0,0(sp)
    80001328:	0141                	addi	sp,sp,16
    8000132a:	8082                	ret

000000008000132c <bp_dump_trap_context>:
    8000132c:	7179                	addi	sp,sp,-48
    8000132e:	f406                	sd	ra,40(sp)
    80001330:	f022                	sd	s0,32(sp)
    80001332:	1800                	addi	s0,sp,48
    80001334:	fca43c23          	sd	a0,-40(s0)
    80001338:	fcb43823          	sd	a1,-48(s0)
    8000133c:	341027f3          	csrr	a5,mepc
    80001340:	fef43423          	sd	a5,-24(s0)
    80001344:	00005517          	auipc	a0,0x5
    80001348:	aec50513          	addi	a0,a0,-1300 # 80005e30 <_open+0x90>
    8000134c:	e9bff0ef          	jal	800011e6 <bp_print_string>
    80001350:	fd843503          	ld	a0,-40(s0)
    80001354:	e2fff0ef          	jal	80001182 <bp_hprint_uint64>
    80001358:	00005517          	auipc	a0,0x5
    8000135c:	ae850513          	addi	a0,a0,-1304 # 80005e40 <_open+0xa0>
    80001360:	e87ff0ef          	jal	800011e6 <bp_print_string>
    80001364:	fd043503          	ld	a0,-48(s0)
    80001368:	e1bff0ef          	jal	80001182 <bp_hprint_uint64>
    8000136c:	00005517          	auipc	a0,0x5
    80001370:	ae450513          	addi	a0,a0,-1308 # 80005e50 <_open+0xb0>
    80001374:	e73ff0ef          	jal	800011e6 <bp_print_string>
    80001378:	fe843503          	ld	a0,-24(s0)
    8000137c:	e07ff0ef          	jal	80001182 <bp_hprint_uint64>
    80001380:	0001                	nop
    80001382:	70a2                	ld	ra,40(sp)
    80001384:	7402                	ld	s0,32(sp)
    80001386:	6145                	addi	sp,sp,48
    80001388:	8082                	ret

000000008000138a <bp_emulate_illegal_instruction>:
    8000138a:	711d                	addi	sp,sp,-96
    8000138c:	ec86                	sd	ra,88(sp)
    8000138e:	e8a2                	sd	s0,80(sp)
    80001390:	e4a6                	sd	s1,72(sp)
    80001392:	1080                	addi	s0,sp,96
    80001394:	faa43c23          	sd	a0,-72(s0)
    80001398:	fab43823          	sd	a1,-80(s0)
    8000139c:	fac43423          	sd	a2,-88(s0)
    800013a0:	fa843783          	ld	a5,-88(s0)
    800013a4:	83d1                	srli	a5,a5,0x14
    800013a6:	17c2                	slli	a5,a5,0x30
    800013a8:	93c1                	srli	a5,a5,0x30
    800013aa:	7ff7f793          	andi	a5,a5,2047
    800013ae:	fcf41f23          	sh	a5,-34(s0)
    800013b2:	fa843783          	ld	a5,-88(s0)
    800013b6:	83ed                	srli	a5,a5,0x1b
    800013b8:	0ff7f793          	zext.b	a5,a5
    800013bc:	8bfd                	andi	a5,a5,31
    800013be:	fcf40ea3          	sb	a5,-35(s0)
    800013c2:	fa843783          	ld	a5,-88(s0)
    800013c6:	83d1                	srli	a5,a5,0x14
    800013c8:	0ff7f793          	zext.b	a5,a5
    800013cc:	8bfd                	andi	a5,a5,31
    800013ce:	fcf40e23          	sb	a5,-36(s0)
    800013d2:	fa843783          	ld	a5,-88(s0)
    800013d6:	83bd                	srli	a5,a5,0xf
    800013d8:	0ff7f793          	zext.b	a5,a5
    800013dc:	8bfd                	andi	a5,a5,31
    800013de:	fcf40da3          	sb	a5,-37(s0)
    800013e2:	fa843783          	ld	a5,-88(s0)
    800013e6:	83b1                	srli	a5,a5,0xc
    800013e8:	0ff7f793          	zext.b	a5,a5
    800013ec:	8b9d                	andi	a5,a5,7
    800013ee:	fcf40d23          	sb	a5,-38(s0)
    800013f2:	fa843783          	ld	a5,-88(s0)
    800013f6:	839d                	srli	a5,a5,0x7
    800013f8:	0ff7f793          	zext.b	a5,a5
    800013fc:	8bfd                	andi	a5,a5,31
    800013fe:	fcf40ca3          	sb	a5,-39(s0)
    80001402:	fa843783          	ld	a5,-88(s0)
    80001406:	0ff7f793          	zext.b	a5,a5
    8000140a:	07f7f793          	andi	a5,a5,127
    8000140e:	fcf40c23          	sb	a5,-40(s0)
    80001412:	fdb44783          	lbu	a5,-37(s0)
    80001416:	078e                	slli	a5,a5,0x3
    80001418:	fb843703          	ld	a4,-72(s0)
    8000141c:	97ba                	add	a5,a5,a4
    8000141e:	639c                	ld	a5,0(a5)
    80001420:	fcf43823          	sd	a5,-48(s0)
    80001424:	fdc44783          	lbu	a5,-36(s0)
    80001428:	078e                	slli	a5,a5,0x3
    8000142a:	fb843703          	ld	a4,-72(s0)
    8000142e:	97ba                	add	a5,a5,a4
    80001430:	639c                	ld	a5,0(a5)
    80001432:	fcf43423          	sd	a5,-56(s0)
    80001436:	fd844783          	lbu	a5,-40(s0)
    8000143a:	0ff7f713          	zext.b	a4,a5
    8000143e:	02f00793          	li	a5,47
    80001442:	04f71063          	bne	a4,a5,80001482 <bp_emulate_illegal_instruction+0xf8>
    80001446:	fda44783          	lbu	a5,-38(s0)
    8000144a:	2781                	sext.w	a5,a5
    8000144c:	00007717          	auipc	a4,0x7
    80001450:	fc470713          	addi	a4,a4,-60 # 80008410 <amo_jt>
    80001454:	078e                	slli	a5,a5,0x3
    80001456:	97ba                	add	a5,a5,a4
    80001458:	6398                	ld	a4,0(a5)
    8000145a:	fdd44783          	lbu	a5,-35(s0)
    8000145e:	078e                	slli	a5,a5,0x3
    80001460:	97ba                	add	a5,a5,a4
    80001462:	639c                	ld	a5,0(a5)
    80001464:	fd944703          	lbu	a4,-39(s0)
    80001468:	070e                	slli	a4,a4,0x3
    8000146a:	fb843683          	ld	a3,-72(s0)
    8000146e:	00e684b3          	add	s1,a3,a4
    80001472:	fc843583          	ld	a1,-56(s0)
    80001476:	fd043503          	ld	a0,-48(s0)
    8000147a:	9782                	jalr	a5
    8000147c:	87aa                	mv	a5,a0
    8000147e:	e09c                	sd	a5,0(s1)
    80001480:	a8b1                	j	800014dc <bp_emulate_illegal_instruction+0x152>
    80001482:	fd844783          	lbu	a5,-40(s0)
    80001486:	0ff7f713          	zext.b	a4,a5
    8000148a:	03300793          	li	a5,51
    8000148e:	02f71b63          	bne	a4,a5,800014c4 <bp_emulate_illegal_instruction+0x13a>
    80001492:	fda44783          	lbu	a5,-38(s0)
    80001496:	2781                	sext.w	a5,a5
    80001498:	00007717          	auipc	a4,0x7
    8000149c:	f3870713          	addi	a4,a4,-200 # 800083d0 <mul_jt>
    800014a0:	078e                	slli	a5,a5,0x3
    800014a2:	97ba                	add	a5,a5,a4
    800014a4:	639c                	ld	a5,0(a5)
    800014a6:	fd944703          	lbu	a4,-39(s0)
    800014aa:	070e                	slli	a4,a4,0x3
    800014ac:	fb843683          	ld	a3,-72(s0)
    800014b0:	00e684b3          	add	s1,a3,a4
    800014b4:	fc843583          	ld	a1,-56(s0)
    800014b8:	fd043503          	ld	a0,-48(s0)
    800014bc:	9782                	jalr	a5
    800014be:	87aa                	mv	a5,a0
    800014c0:	e09c                	sd	a5,0(s1)
    800014c2:	a829                	j	800014dc <bp_emulate_illegal_instruction+0x152>
    800014c4:	fa843583          	ld	a1,-88(s0)
    800014c8:	fb043503          	ld	a0,-80(s0)
    800014cc:	e61ff0ef          	jal	8000132c <bp_dump_trap_context>
    800014d0:	00005517          	auipc	a0,0x5
    800014d4:	99050513          	addi	a0,a0,-1648 # 80005e60 <_open+0xc0>
    800014d8:	d91ff0ef          	jal	80001268 <bp_panic>
    800014dc:	341027f3          	csrr	a5,mepc
    800014e0:	fcf43023          	sd	a5,-64(s0)
    800014e4:	fc043783          	ld	a5,-64(s0)
    800014e8:	0791                	addi	a5,a5,4
    800014ea:	fcf43023          	sd	a5,-64(s0)
    800014ee:	fc043783          	ld	a5,-64(s0)
    800014f2:	34179073          	csrw	mepc,a5
    800014f6:	0001                	nop
    800014f8:	60e6                	ld	ra,88(sp)
    800014fa:	6446                	ld	s0,80(sp)
    800014fc:	64a6                	ld	s1,72(sp)
    800014fe:	6125                	addi	sp,sp,96
    80001500:	8082                	ret

0000000080001502 <bp_unhandled_trap_abort>:
    80001502:	7179                	addi	sp,sp,-48
    80001504:	f406                	sd	ra,40(sp)
    80001506:	f022                	sd	s0,32(sp)
    80001508:	1800                	addi	s0,sp,48
    8000150a:	fea43423          	sd	a0,-24(s0)
    8000150e:	feb43023          	sd	a1,-32(s0)
    80001512:	fcc43c23          	sd	a2,-40(s0)
    80001516:	fd843583          	ld	a1,-40(s0)
    8000151a:	fe043503          	ld	a0,-32(s0)
    8000151e:	e0fff0ef          	jal	8000132c <bp_dump_trap_context>
    80001522:	00005517          	auipc	a0,0x5
    80001526:	95650513          	addi	a0,a0,-1706 # 80005e78 <_open+0xd8>
    8000152a:	d3fff0ef          	jal	80001268 <bp_panic>
    8000152e:	0001                	nop
    80001530:	70a2                	ld	ra,40(sp)
    80001532:	7402                	ld	s0,32(sp)
    80001534:	6145                	addi	sp,sp,48
    80001536:	8082                	ret

0000000080001538 <__mtvec_handler>:
    80001538:	34011173          	csrrw	sp,mscratch,sp
    8000153c:	e07e                	sd	t6,0(sp)
    8000153e:	ffe13c23          	sd	t5,-8(sp)
    80001542:	ffd13823          	sd	t4,-16(sp)
    80001546:	ffc13423          	sd	t3,-24(sp)
    8000154a:	ffb13023          	sd	s11,-32(sp)
    8000154e:	fda13c23          	sd	s10,-40(sp)
    80001552:	fd913823          	sd	s9,-48(sp)
    80001556:	fd813423          	sd	s8,-56(sp)
    8000155a:	fd713023          	sd	s7,-64(sp)
    8000155e:	fb613c23          	sd	s6,-72(sp)
    80001562:	fb513823          	sd	s5,-80(sp)
    80001566:	fb413423          	sd	s4,-88(sp)
    8000156a:	fb313023          	sd	s3,-96(sp)
    8000156e:	f9213c23          	sd	s2,-104(sp)
    80001572:	f9113823          	sd	a7,-112(sp)
    80001576:	f9013423          	sd	a6,-120(sp)
    8000157a:	f8f13023          	sd	a5,-128(sp)
    8000157e:	f6e13c23          	sd	a4,-136(sp)
    80001582:	f6d13823          	sd	a3,-144(sp)
    80001586:	f6c13423          	sd	a2,-152(sp)
    8000158a:	f6b13023          	sd	a1,-160(sp)
    8000158e:	f4a13c23          	sd	a0,-168(sp)
    80001592:	f4913823          	sd	s1,-176(sp)
    80001596:	f4813423          	sd	s0,-184(sp)
    8000159a:	f4713023          	sd	t2,-192(sp)
    8000159e:	f2613c23          	sd	t1,-200(sp)
    800015a2:	f2513823          	sd	t0,-208(sp)
    800015a6:	f2413423          	sd	tp,-216(sp)
    800015aa:	f2313023          	sd	gp,-224(sp)
    800015ae:	340022f3          	csrr	t0,mscratch
    800015b2:	f0513c23          	sd	t0,-232(sp)
    800015b6:	f0113823          	sd	ra,-240(sp)
    800015ba:	f0013423          	sd	zero,-248(sp)
    800015be:	7111                	addi	sp,sp,-256
    800015c0:	0028                	addi	a0,sp,8
    800015c2:	342025f3          	csrr	a1,mcause
    800015c6:	34302673          	csrr	a2,mtval
    800015ca:	9c9ff0ef          	jal	80000f92 <bp_trap_handler>
    800015ce:	6111                	addi	sp,sp,256
    800015d0:	34011073          	csrw	mscratch,sp
    800015d4:	f0813003          	ld	zero,-248(sp)
    800015d8:	f1013083          	ld	ra,-240(sp)
    800015dc:	f2013183          	ld	gp,-224(sp)
    800015e0:	f2813203          	ld	tp,-216(sp)
    800015e4:	f3013283          	ld	t0,-208(sp)
    800015e8:	f3813303          	ld	t1,-200(sp)
    800015ec:	f4013383          	ld	t2,-192(sp)
    800015f0:	f4813403          	ld	s0,-184(sp)
    800015f4:	f5013483          	ld	s1,-176(sp)
    800015f8:	f5813503          	ld	a0,-168(sp)
    800015fc:	f6013583          	ld	a1,-160(sp)
    80001600:	f6813603          	ld	a2,-152(sp)
    80001604:	f7013683          	ld	a3,-144(sp)
    80001608:	f7813703          	ld	a4,-136(sp)
    8000160c:	f8013783          	ld	a5,-128(sp)
    80001610:	f8813803          	ld	a6,-120(sp)
    80001614:	f9013883          	ld	a7,-112(sp)
    80001618:	f9813903          	ld	s2,-104(sp)
    8000161c:	fa013983          	ld	s3,-96(sp)
    80001620:	fa813a03          	ld	s4,-88(sp)
    80001624:	fb013a83          	ld	s5,-80(sp)
    80001628:	fb813b03          	ld	s6,-72(sp)
    8000162c:	fc013b83          	ld	s7,-64(sp)
    80001630:	fc813c03          	ld	s8,-56(sp)
    80001634:	fd013c83          	ld	s9,-48(sp)
    80001638:	fd813d03          	ld	s10,-40(sp)
    8000163c:	fe013d83          	ld	s11,-32(sp)
    80001640:	fe813e03          	ld	t3,-24(sp)
    80001644:	ff013e83          	ld	t4,-16(sp)
    80001648:	ff813f03          	ld	t5,-8(sp)
    8000164c:	6f82                	ld	t6,0(sp)
    8000164e:	f1813103          	ld	sp,-232(sp)
    80001652:	30200073          	mret

0000000080001656 <mul_mulh>:
    80001656:	02051613          	slli	a2,a0,0x20
    8000165a:	9201                	srli	a2,a2,0x20
    8000165c:	02059693          	slli	a3,a1,0x20
    80001660:	9281                	srli	a3,a3,0x20
    80001662:	02d60733          	mul	a4,a2,a3
    80001666:	42075793          	srai	a5,a4,0x20
    8000166a:	42055293          	srai	t0,a0,0x20
    8000166e:	02d28733          	mul	a4,t0,a3
    80001672:	973e                	add	a4,a4,a5
    80001674:	02071793          	slli	a5,a4,0x20
    80001678:	9381                	srli	a5,a5,0x20
    8000167a:	42075813          	srai	a6,a4,0x20
    8000167e:	4205d313          	srai	t1,a1,0x20
    80001682:	02660733          	mul	a4,a2,t1
    80001686:	973e                	add	a4,a4,a5
    80001688:	42075793          	srai	a5,a4,0x20
    8000168c:	026282b3          	mul	t0,t0,t1
    80001690:	92c2                	add	t0,t0,a6
    80001692:	00f28533          	add	a0,t0,a5
    80001696:	00008067          	ret

000000008000169a <mul_mulhsu>:
    8000169a:	02051613          	slli	a2,a0,0x20
    8000169e:	9201                	srli	a2,a2,0x20
    800016a0:	02059693          	slli	a3,a1,0x20
    800016a4:	9281                	srli	a3,a3,0x20
    800016a6:	02d60733          	mul	a4,a2,a3
    800016aa:	42075793          	srai	a5,a4,0x20
    800016ae:	42055293          	srai	t0,a0,0x20
    800016b2:	02d28733          	mul	a4,t0,a3
    800016b6:	973e                	add	a4,a4,a5
    800016b8:	02071793          	slli	a5,a4,0x20
    800016bc:	9381                	srli	a5,a5,0x20
    800016be:	42075813          	srai	a6,a4,0x20
    800016c2:	0205d313          	srli	t1,a1,0x20
    800016c6:	02660733          	mul	a4,a2,t1
    800016ca:	973e                	add	a4,a4,a5
    800016cc:	02075793          	srli	a5,a4,0x20
    800016d0:	026282b3          	mul	t0,t0,t1
    800016d4:	92c2                	add	t0,t0,a6
    800016d6:	00f28533          	add	a0,t0,a5
    800016da:	00008067          	ret

00000000800016de <mul_mulhu>:
    800016de:	02051613          	slli	a2,a0,0x20
    800016e2:	9201                	srli	a2,a2,0x20
    800016e4:	02055293          	srli	t0,a0,0x20
    800016e8:	02059693          	slli	a3,a1,0x20
    800016ec:	9281                	srli	a3,a3,0x20
    800016ee:	0205d313          	srli	t1,a1,0x20
    800016f2:	02d60733          	mul	a4,a2,a3
    800016f6:	02075793          	srli	a5,a4,0x20
    800016fa:	02d28733          	mul	a4,t0,a3
    800016fe:	973e                	add	a4,a4,a5
    80001700:	02071793          	slli	a5,a4,0x20
    80001704:	9381                	srli	a5,a5,0x20
    80001706:	02075813          	srli	a6,a4,0x20
    8000170a:	02660733          	mul	a4,a2,t1
    8000170e:	973e                	add	a4,a4,a5
    80001710:	02075793          	srli	a5,a4,0x20
    80001714:	026282b3          	mul	t0,t0,t1
    80001718:	92c2                	add	t0,t0,a6
    8000171a:	00f28533          	add	a0,t0,a5
    8000171e:	00008067          	ret

0000000080001722 <memset>:
    80001722:	433d                	li	t1,15
    80001724:	872a                	mv	a4,a0
    80001726:	02c37163          	bgeu	t1,a2,80001748 <memset+0x26>
    8000172a:	00f77793          	andi	a5,a4,15
    8000172e:	e3c1                	bnez	a5,800017ae <memset+0x8c>
    80001730:	e1bd                	bnez	a1,80001796 <memset+0x74>
    80001732:	ff067693          	andi	a3,a2,-16
    80001736:	8a3d                	andi	a2,a2,15
    80001738:	96ba                	add	a3,a3,a4
    8000173a:	e30c                	sd	a1,0(a4)
    8000173c:	e70c                	sd	a1,8(a4)
    8000173e:	0741                	addi	a4,a4,16
    80001740:	fed76de3          	bltu	a4,a3,8000173a <memset+0x18>
    80001744:	e211                	bnez	a2,80001748 <memset+0x26>
    80001746:	8082                	ret
    80001748:	40c306b3          	sub	a3,t1,a2
    8000174c:	068a                	slli	a3,a3,0x2
    8000174e:	00000297          	auipc	t0,0x0
    80001752:	9696                	add	a3,a3,t0
    80001754:	00a68067          	jr	10(a3)
    80001758:	00b70723          	sb	a1,14(a4)
    8000175c:	00b706a3          	sb	a1,13(a4)
    80001760:	00b70623          	sb	a1,12(a4)
    80001764:	00b705a3          	sb	a1,11(a4)
    80001768:	00b70523          	sb	a1,10(a4)
    8000176c:	00b704a3          	sb	a1,9(a4)
    80001770:	00b70423          	sb	a1,8(a4)
    80001774:	00b703a3          	sb	a1,7(a4)
    80001778:	00b70323          	sb	a1,6(a4)
    8000177c:	00b702a3          	sb	a1,5(a4)
    80001780:	00b70223          	sb	a1,4(a4)
    80001784:	00b701a3          	sb	a1,3(a4)
    80001788:	00b70123          	sb	a1,2(a4)
    8000178c:	00b700a3          	sb	a1,1(a4)
    80001790:	00b70023          	sb	a1,0(a4)
    80001794:	8082                	ret
    80001796:	0ff5f593          	zext.b	a1,a1
    8000179a:	00859693          	slli	a3,a1,0x8
    8000179e:	8dd5                	or	a1,a1,a3
    800017a0:	01059693          	slli	a3,a1,0x10
    800017a4:	8dd5                	or	a1,a1,a3
    800017a6:	02059693          	slli	a3,a1,0x20
    800017aa:	8dd5                	or	a1,a1,a3
    800017ac:	b759                	j	80001732 <memset+0x10>
    800017ae:	00279693          	slli	a3,a5,0x2
    800017b2:	00000297          	auipc	t0,0x0
    800017b6:	9696                	add	a3,a3,t0
    800017b8:	8286                	mv	t0,ra
    800017ba:	fa2680e7          	jalr	-94(a3)
    800017be:	8096                	mv	ra,t0
    800017c0:	17c1                	addi	a5,a5,-16
    800017c2:	8f1d                	sub	a4,a4,a5
    800017c4:	963e                	add	a2,a2,a5
    800017c6:	f8c371e3          	bgeu	t1,a2,80001748 <memset+0x26>
    800017ca:	b79d                	j	80001730 <memset+0xe>

00000000800017cc <dramfs_init_fdtable>:
    800017cc:	0001d797          	auipc	a5,0x1d
    800017d0:	83478793          	addi	a5,a5,-1996 # 8001e000 <dramfs_fdtable>
    800017d4:	0001d717          	auipc	a4,0x1d
    800017d8:	e6c70713          	addi	a4,a4,-404 # 8001e640 <dramfs_fs>
    800017dc:	0007a023          	sw	zero,0(a5)
    800017e0:	0007a223          	sw	zero,4(a5)
    800017e4:	05078793          	addi	a5,a5,80
    800017e8:	fee79ae3          	bne	a5,a4,800017dc <dramfs_init_fdtable+0x10>
    800017ec:	8082                	ret

00000000800017ee <dramfs_check_fd>:
    800017ee:	47cd                	li	a5,19
    800017f0:	00a7ef63          	bltu	a5,a0,8000180e <dramfs_check_fd+0x20>
    800017f4:	00251793          	slli	a5,a0,0x2
    800017f8:	97aa                	add	a5,a5,a0
    800017fa:	0792                	slli	a5,a5,0x4
    800017fc:	0001d717          	auipc	a4,0x1d
    80001800:	80470713          	addi	a4,a4,-2044 # 8001e000 <dramfs_fdtable>
    80001804:	97ba                	add	a5,a5,a4
    80001806:	439c                	lw	a5,0(a5)
    80001808:	4501                	li	a0,0
    8000180a:	c391                	beqz	a5,8000180e <dramfs_check_fd+0x20>
    8000180c:	8082                	ret
    8000180e:	1141                	addi	sp,sp,-16
    80001810:	e406                	sd	ra,8(sp)
    80001812:	176040ef          	jal	80005988 <__errno>
    80001816:	47a5                	li	a5,9
    80001818:	c11c                	sw	a5,0(a0)
    8000181a:	557d                	li	a0,-1
    8000181c:	60a2                	ld	ra,8(sp)
    8000181e:	0141                	addi	sp,sp,16
    80001820:	8082                	ret

0000000080001822 <dramfs_nonblock_fd>:
    80001822:	00251793          	slli	a5,a0,0x2
    80001826:	97aa                	add	a5,a5,a0
    80001828:	0792                	slli	a5,a5,0x4
    8000182a:	0001c717          	auipc	a4,0x1c
    8000182e:	7d670713          	addi	a4,a4,2006 # 8001e000 <dramfs_fdtable>
    80001832:	97ba                	add	a5,a5,a4
    80001834:	43c8                	lw	a0,4(a5)
    80001836:	157d                	addi	a0,a0,-1
    80001838:	00153513          	seqz	a0,a0
    8000183c:	8082                	ret

000000008000183e <dramfs_reserve_fd>:
    8000183e:	0001c797          	auipc	a5,0x1c
    80001842:	7c278793          	addi	a5,a5,1986 # 8001e000 <dramfs_fdtable>
    80001846:	4501                	li	a0,0
    80001848:	46d1                	li	a3,20
    8000184a:	4398                	lw	a4,0(a5)
    8000184c:	c305                	beqz	a4,8000186c <dramfs_reserve_fd+0x2e>
    8000184e:	2505                	addiw	a0,a0,1
    80001850:	05078793          	addi	a5,a5,80
    80001854:	fed51be3          	bne	a0,a3,8000184a <dramfs_reserve_fd+0xc>
    80001858:	1141                	addi	sp,sp,-16
    8000185a:	e406                	sd	ra,8(sp)
    8000185c:	12c040ef          	jal	80005988 <__errno>
    80001860:	47dd                	li	a5,23
    80001862:	c11c                	sw	a5,0(a0)
    80001864:	557d                	li	a0,-1
    80001866:	60a2                	ld	ra,8(sp)
    80001868:	0141                	addi	sp,sp,16
    8000186a:	8082                	ret
    8000186c:	00251793          	slli	a5,a0,0x2
    80001870:	97aa                	add	a5,a5,a0
    80001872:	0792                	slli	a5,a5,0x4
    80001874:	0001c717          	auipc	a4,0x1c
    80001878:	78c70713          	addi	a4,a4,1932 # 8001e000 <dramfs_fdtable>
    8000187c:	97ba                	add	a5,a5,a4
    8000187e:	4705                	li	a4,1
    80001880:	c398                	sw	a4,0(a5)
    80001882:	8082                	ret

0000000080001884 <dramfs_get_file>:
    80001884:	00251793          	slli	a5,a0,0x2
    80001888:	97aa                	add	a5,a5,a0
    8000188a:	0792                	slli	a5,a5,0x4
    8000188c:	0001c517          	auipc	a0,0x1c
    80001890:	77c50513          	addi	a0,a0,1916 # 8001e008 <dramfs_fdtable+0x8>
    80001894:	953e                	add	a0,a0,a5
    80001896:	8082                	ret

0000000080001898 <dramfs_free_fd>:
    80001898:	00251793          	slli	a5,a0,0x2
    8000189c:	97aa                	add	a5,a5,a0
    8000189e:	0792                	slli	a5,a5,0x4
    800018a0:	0001c717          	auipc	a4,0x1c
    800018a4:	76070713          	addi	a4,a4,1888 # 8001e000 <dramfs_fdtable>
    800018a8:	97ba                	add	a5,a5,a4
    800018aa:	4398                	lw	a4,0(a5)
    800018ac:	4785                	li	a5,1
    800018ae:	00f70463          	beq	a4,a5,800018b6 <dramfs_free_fd+0x1e>
    800018b2:	4501                	li	a0,0
    800018b4:	8082                	ret
    800018b6:	1141                	addi	sp,sp,-16
    800018b8:	e406                	sd	ra,8(sp)
    800018ba:	0001c597          	auipc	a1,0x1c
    800018be:	74658593          	addi	a1,a1,1862 # 8001e000 <dramfs_fdtable>
    800018c2:	00251793          	slli	a5,a0,0x2
    800018c6:	00a78733          	add	a4,a5,a0
    800018ca:	0712                	slli	a4,a4,0x4
    800018cc:	972e                	add	a4,a4,a1
    800018ce:	00072023          	sw	zero,0(a4)
    800018d2:	97aa                	add	a5,a5,a0
    800018d4:	0792                	slli	a5,a5,0x4
    800018d6:	07a1                	addi	a5,a5,8
    800018d8:	95be                	add	a1,a1,a5
    800018da:	0001d517          	auipc	a0,0x1d
    800018de:	d6650513          	addi	a0,a0,-666 # 8001e640 <dramfs_fs>
    800018e2:	095020ef          	jal	80004176 <lfs_file_close>
    800018e6:	60a2                	ld	ra,8(sp)
    800018e8:	0141                	addi	sp,sp,16
    800018ea:	8082                	ret

00000000800018ec <lfs_bd_erase>:
    800018ec:	1141                	addi	sp,sp,-16
    800018ee:	e406                	sd	ra,8(sp)
    800018f0:	6108                	ld	a0,0(a0)
    800018f2:	6d1c                	ld	a5,24(a0)
    800018f4:	9782                	jalr	a5
    800018f6:	60a2                	ld	ra,8(sp)
    800018f8:	0141                	addi	sp,sp,16
    800018fa:	8082                	ret

00000000800018fc <lfs_alloc_lookahead>:
    800018fc:	611c                	ld	a5,0(a0)
    800018fe:	5bd8                	lw	a4,52(a5)
    80001900:	413c                	lw	a5,64(a0)
    80001902:	40f707bb          	subw	a5,a4,a5
    80001906:	9dbd                	addw	a1,a1,a5
    80001908:	02e5f5bb          	remuw	a1,a1,a4
    8000190c:	0005879b          	sext.w	a5,a1
    80001910:	4178                	lw	a4,68(a0)
    80001912:	00e7fd63          	bgeu	a5,a4,8000192c <lfs_alloc_lookahead+0x30>
    80001916:	0055d71b          	srliw	a4,a1,0x5
    8000191a:	070a                	slli	a4,a4,0x2
    8000191c:	693c                	ld	a5,80(a0)
    8000191e:	97ba                	add	a5,a5,a4
    80001920:	4685                	li	a3,1
    80001922:	00b696bb          	sllw	a3,a3,a1
    80001926:	4398                	lw	a4,0(a5)
    80001928:	8f55                	or	a4,a4,a3
    8000192a:	c398                	sw	a4,0(a5)
    8000192c:	4501                	li	a0,0
    8000192e:	8082                	ret

0000000080001930 <lfs_dir_fromle32>:
    80001930:	4118                	lw	a4,0(a0)
    80001932:	00875793          	srli	a5,a4,0x8
    80001936:	0ff7f793          	zext.b	a5,a5
    8000193a:	0087979b          	slliw	a5,a5,0x8
    8000193e:	01075693          	srli	a3,a4,0x10
    80001942:	0ff6f693          	zext.b	a3,a3
    80001946:	0106969b          	slliw	a3,a3,0x10
    8000194a:	8fd5                	or	a5,a5,a3
    8000194c:	0ff77693          	zext.b	a3,a4
    80001950:	8fd5                	or	a5,a5,a3
    80001952:	0187571b          	srliw	a4,a4,0x18
    80001956:	0187171b          	slliw	a4,a4,0x18
    8000195a:	8fd9                	or	a5,a5,a4
    8000195c:	c11c                	sw	a5,0(a0)
    8000195e:	4158                	lw	a4,4(a0)
    80001960:	00875793          	srli	a5,a4,0x8
    80001964:	0ff7f793          	zext.b	a5,a5
    80001968:	0087979b          	slliw	a5,a5,0x8
    8000196c:	01075693          	srli	a3,a4,0x10
    80001970:	0ff6f693          	zext.b	a3,a3
    80001974:	0106969b          	slliw	a3,a3,0x10
    80001978:	8fd5                	or	a5,a5,a3
    8000197a:	0ff77693          	zext.b	a3,a4
    8000197e:	8fd5                	or	a5,a5,a3
    80001980:	0187571b          	srliw	a4,a4,0x18
    80001984:	0187171b          	slliw	a4,a4,0x18
    80001988:	8fd9                	or	a5,a5,a4
    8000198a:	c15c                	sw	a5,4(a0)
    8000198c:	4518                	lw	a4,8(a0)
    8000198e:	00875793          	srli	a5,a4,0x8
    80001992:	0ff7f793          	zext.b	a5,a5
    80001996:	0087979b          	slliw	a5,a5,0x8
    8000199a:	01075693          	srli	a3,a4,0x10
    8000199e:	0ff6f693          	zext.b	a3,a3
    800019a2:	0106969b          	slliw	a3,a3,0x10
    800019a6:	8fd5                	or	a5,a5,a3
    800019a8:	0ff77693          	zext.b	a3,a4
    800019ac:	8fd5                	or	a5,a5,a3
    800019ae:	0187571b          	srliw	a4,a4,0x18
    800019b2:	0187171b          	slliw	a4,a4,0x18
    800019b6:	8fd9                	or	a5,a5,a4
    800019b8:	c51c                	sw	a5,8(a0)
    800019ba:	4558                	lw	a4,12(a0)
    800019bc:	00875793          	srli	a5,a4,0x8
    800019c0:	0ff7f793          	zext.b	a5,a5
    800019c4:	0087979b          	slliw	a5,a5,0x8
    800019c8:	01075693          	srli	a3,a4,0x10
    800019cc:	0ff6f693          	zext.b	a3,a3
    800019d0:	0106969b          	slliw	a3,a3,0x10
    800019d4:	8fd5                	or	a5,a5,a3
    800019d6:	0ff77693          	zext.b	a3,a4
    800019da:	8fd5                	or	a5,a5,a3
    800019dc:	0187571b          	srliw	a4,a4,0x18
    800019e0:	0187171b          	slliw	a4,a4,0x18
    800019e4:	8fd9                	or	a5,a5,a4
    800019e6:	c55c                	sw	a5,12(a0)
    800019e8:	8082                	ret

00000000800019ea <lfs_dir_tole32>:
    800019ea:	4118                	lw	a4,0(a0)
    800019ec:	00875793          	srli	a5,a4,0x8
    800019f0:	0ff7f793          	zext.b	a5,a5
    800019f4:	0087979b          	slliw	a5,a5,0x8
    800019f8:	01075693          	srli	a3,a4,0x10
    800019fc:	0ff6f693          	zext.b	a3,a3
    80001a00:	0106969b          	slliw	a3,a3,0x10
    80001a04:	8fd5                	or	a5,a5,a3
    80001a06:	0ff77693          	zext.b	a3,a4
    80001a0a:	8fd5                	or	a5,a5,a3
    80001a0c:	0187571b          	srliw	a4,a4,0x18
    80001a10:	0187171b          	slliw	a4,a4,0x18
    80001a14:	8fd9                	or	a5,a5,a4
    80001a16:	c11c                	sw	a5,0(a0)
    80001a18:	4158                	lw	a4,4(a0)
    80001a1a:	00875793          	srli	a5,a4,0x8
    80001a1e:	0ff7f793          	zext.b	a5,a5
    80001a22:	0087979b          	slliw	a5,a5,0x8
    80001a26:	01075693          	srli	a3,a4,0x10
    80001a2a:	0ff6f693          	zext.b	a3,a3
    80001a2e:	0106969b          	slliw	a3,a3,0x10
    80001a32:	8fd5                	or	a5,a5,a3
    80001a34:	0ff77693          	zext.b	a3,a4
    80001a38:	8fd5                	or	a5,a5,a3
    80001a3a:	0187571b          	srliw	a4,a4,0x18
    80001a3e:	0187171b          	slliw	a4,a4,0x18
    80001a42:	8fd9                	or	a5,a5,a4
    80001a44:	c15c                	sw	a5,4(a0)
    80001a46:	4518                	lw	a4,8(a0)
    80001a48:	00875793          	srli	a5,a4,0x8
    80001a4c:	0ff7f793          	zext.b	a5,a5
    80001a50:	0087979b          	slliw	a5,a5,0x8
    80001a54:	01075693          	srli	a3,a4,0x10
    80001a58:	0ff6f693          	zext.b	a3,a3
    80001a5c:	0106969b          	slliw	a3,a3,0x10
    80001a60:	8fd5                	or	a5,a5,a3
    80001a62:	0ff77693          	zext.b	a3,a4
    80001a66:	8fd5                	or	a5,a5,a3
    80001a68:	0187571b          	srliw	a4,a4,0x18
    80001a6c:	0187171b          	slliw	a4,a4,0x18
    80001a70:	8fd9                	or	a5,a5,a4
    80001a72:	c51c                	sw	a5,8(a0)
    80001a74:	4558                	lw	a4,12(a0)
    80001a76:	00875793          	srli	a5,a4,0x8
    80001a7a:	0ff7f793          	zext.b	a5,a5
    80001a7e:	0087979b          	slliw	a5,a5,0x8
    80001a82:	01075693          	srli	a3,a4,0x10
    80001a86:	0ff6f693          	zext.b	a3,a3
    80001a8a:	0106969b          	slliw	a3,a3,0x10
    80001a8e:	8fd5                	or	a5,a5,a3
    80001a90:	0ff77693          	zext.b	a3,a4
    80001a94:	8fd5                	or	a5,a5,a3
    80001a96:	0187571b          	srliw	a4,a4,0x18
    80001a9a:	0187171b          	slliw	a4,a4,0x18
    80001a9e:	8fd9                	or	a5,a5,a4
    80001aa0:	c55c                	sw	a5,12(a0)
    80001aa2:	8082                	ret

0000000080001aa4 <lfs_entry_fromle32>:
    80001aa4:	4158                	lw	a4,4(a0)
    80001aa6:	00875793          	srli	a5,a4,0x8
    80001aaa:	0ff7f793          	zext.b	a5,a5
    80001aae:	0087979b          	slliw	a5,a5,0x8
    80001ab2:	01075693          	srli	a3,a4,0x10
    80001ab6:	0ff6f693          	zext.b	a3,a3
    80001aba:	0106969b          	slliw	a3,a3,0x10
    80001abe:	8fd5                	or	a5,a5,a3
    80001ac0:	0ff77693          	zext.b	a3,a4
    80001ac4:	8fd5                	or	a5,a5,a3
    80001ac6:	0187571b          	srliw	a4,a4,0x18
    80001aca:	0187171b          	slliw	a4,a4,0x18
    80001ace:	8fd9                	or	a5,a5,a4
    80001ad0:	c15c                	sw	a5,4(a0)
    80001ad2:	4518                	lw	a4,8(a0)
    80001ad4:	00875793          	srli	a5,a4,0x8
    80001ad8:	0ff7f793          	zext.b	a5,a5
    80001adc:	0087979b          	slliw	a5,a5,0x8
    80001ae0:	01075693          	srli	a3,a4,0x10
    80001ae4:	0ff6f693          	zext.b	a3,a3
    80001ae8:	0106969b          	slliw	a3,a3,0x10
    80001aec:	8fd5                	or	a5,a5,a3
    80001aee:	0ff77693          	zext.b	a3,a4
    80001af2:	8fd5                	or	a5,a5,a3
    80001af4:	0187571b          	srliw	a4,a4,0x18
    80001af8:	0187171b          	slliw	a4,a4,0x18
    80001afc:	8fd9                	or	a5,a5,a4
    80001afe:	c51c                	sw	a5,8(a0)
    80001b00:	8082                	ret

0000000080001b02 <lfs_entry_tole32>:
    80001b02:	4158                	lw	a4,4(a0)
    80001b04:	00875793          	srli	a5,a4,0x8
    80001b08:	0ff7f793          	zext.b	a5,a5
    80001b0c:	0087979b          	slliw	a5,a5,0x8
    80001b10:	01075693          	srli	a3,a4,0x10
    80001b14:	0ff6f693          	zext.b	a3,a3
    80001b18:	0106969b          	slliw	a3,a3,0x10
    80001b1c:	8fd5                	or	a5,a5,a3
    80001b1e:	0ff77693          	zext.b	a3,a4
    80001b22:	8fd5                	or	a5,a5,a3
    80001b24:	0187571b          	srliw	a4,a4,0x18
    80001b28:	0187171b          	slliw	a4,a4,0x18
    80001b2c:	8fd9                	or	a5,a5,a4
    80001b2e:	c15c                	sw	a5,4(a0)
    80001b30:	4518                	lw	a4,8(a0)
    80001b32:	00875793          	srli	a5,a4,0x8
    80001b36:	0ff7f793          	zext.b	a5,a5
    80001b3a:	0087979b          	slliw	a5,a5,0x8
    80001b3e:	01075693          	srli	a3,a4,0x10
    80001b42:	0ff6f693          	zext.b	a3,a3
    80001b46:	0106969b          	slliw	a3,a3,0x10
    80001b4a:	8fd5                	or	a5,a5,a3
    80001b4c:	0ff77693          	zext.b	a3,a4
    80001b50:	8fd5                	or	a5,a5,a3
    80001b52:	0187571b          	srliw	a4,a4,0x18
    80001b56:	0187171b          	slliw	a4,a4,0x18
    80001b5a:	8fd9                	or	a5,a5,a4
    80001b5c:	c51c                	sw	a5,8(a0)
    80001b5e:	8082                	ret

0000000080001b60 <lfs_cache_read>:
    80001b60:	715d                	addi	sp,sp,-80
    80001b62:	e486                	sd	ra,72(sp)
    80001b64:	e0a2                	sd	s0,64(sp)
    80001b66:	fc26                	sd	s1,56(sp)
    80001b68:	f84a                	sd	s2,48(sp)
    80001b6a:	f44e                	sd	s3,40(sp)
    80001b6c:	f052                	sd	s4,32(sp)
    80001b6e:	ec56                	sd	s5,24(sp)
    80001b70:	e85a                	sd	s6,16(sp)
    80001b72:	89aa                	mv	s3,a0
    80001b74:	84ae                	mv	s1,a1
    80001b76:	8a32                	mv	s4,a2
    80001b78:	8936                	mv	s2,a3
    80001b7a:	843a                	mv	s0,a4
    80001b7c:	8abe                	mv	s5,a5
    80001b7e:	8b42                	mv	s6,a6
    80001b80:	12080f63          	beqz	a6,80001cbe <lfs_cache_read+0x15e>
    80001b84:	e45e                	sd	s7,8(sp)
    80001b86:	a0c5                	j	80001c66 <lfs_cache_read+0x106>
    80001b88:	004a2783          	lw	a5,4(s4)
    80001b8c:	0ef46363          	bltu	s0,a5,80001c72 <lfs_cache_read+0x112>
    80001b90:	0009b703          	ld	a4,0(s3)
    80001b94:	5758                	lw	a4,44(a4)
    80001b96:	9f3d                	addw	a4,a4,a5
    80001b98:	0007069b          	sext.w	a3,a4
    80001b9c:	0cd47b63          	bgeu	s0,a3,80001c72 <lfs_cache_read+0x112>
    80001ba0:	e062                	sd	s8,0(sp)
    80001ba2:	9f01                	subw	a4,a4,s0
    80001ba4:	8bba                	mv	s7,a4
    80001ba6:	2701                	sext.w	a4,a4
    80001ba8:	00eb7363          	bgeu	s6,a4,80001bae <lfs_cache_read+0x4e>
    80001bac:	8bda                	mv	s7,s6
    80001bae:	020b9c13          	slli	s8,s7,0x20
    80001bb2:	020c5c13          	srli	s8,s8,0x20
    80001bb6:	40f407bb          	subw	a5,s0,a5
    80001bba:	1782                	slli	a5,a5,0x20
    80001bbc:	9381                	srli	a5,a5,0x20
    80001bbe:	008a3583          	ld	a1,8(s4)
    80001bc2:	8662                	mv	a2,s8
    80001bc4:	95be                	add	a1,a1,a5
    80001bc6:	8556                	mv	a0,s5
    80001bc8:	63b030ef          	jal	80005a02 <memcpy>
    80001bcc:	9ae2                	add	s5,s5,s8
    80001bce:	008b843b          	addw	s0,s7,s0
    80001bd2:	417b0b3b          	subw	s6,s6,s7
    80001bd6:	6c02                	ld	s8,0(sp)
    80001bd8:	a8b9                	j	80001c36 <lfs_cache_read+0xd6>
    80001bda:	40dc                	lw	a5,4(s1)
    80001bdc:	08f46e63          	bltu	s0,a5,80001c78 <lfs_cache_read+0x118>
    80001be0:	0009b703          	ld	a4,0(s3)
    80001be4:	5718                	lw	a4,40(a4)
    80001be6:	9f3d                	addw	a4,a4,a5
    80001be8:	0007069b          	sext.w	a3,a4
    80001bec:	08d47663          	bgeu	s0,a3,80001c78 <lfs_cache_read+0x118>
    80001bf0:	e062                	sd	s8,0(sp)
    80001bf2:	9f01                	subw	a4,a4,s0
    80001bf4:	8bba                	mv	s7,a4
    80001bf6:	2701                	sext.w	a4,a4
    80001bf8:	00eb7363          	bgeu	s6,a4,80001bfe <lfs_cache_read+0x9e>
    80001bfc:	8bda                	mv	s7,s6
    80001bfe:	020b9c13          	slli	s8,s7,0x20
    80001c02:	020c5c13          	srli	s8,s8,0x20
    80001c06:	40f407bb          	subw	a5,s0,a5
    80001c0a:	1782                	slli	a5,a5,0x20
    80001c0c:	9381                	srli	a5,a5,0x20
    80001c0e:	648c                	ld	a1,8(s1)
    80001c10:	8662                	mv	a2,s8
    80001c12:	95be                	add	a1,a1,a5
    80001c14:	8556                	mv	a0,s5
    80001c16:	5ed030ef          	jal	80005a02 <memcpy>
    80001c1a:	9ae2                	add	s5,s5,s8
    80001c1c:	008b843b          	addw	s0,s7,s0
    80001c20:	417b0b3b          	subw	s6,s6,s7
    80001c24:	6c02                	ld	s8,0(sp)
    80001c26:	a801                	j	80001c36 <lfs_cache_read+0xd6>
    80001c28:	020b1793          	slli	a5,s6,0x20
    80001c2c:	9381                	srli	a5,a5,0x20
    80001c2e:	9abe                	add	s5,s5,a5
    80001c30:	008b043b          	addw	s0,s6,s0
    80001c34:	8b5e                	mv	s6,s7
    80001c36:	020b1863          	bnez	s6,80001c66 <lfs_cache_read+0x106>
    80001c3a:	4501                	li	a0,0
    80001c3c:	6ba2                	ld	s7,8(sp)
    80001c3e:	a0a5                	j	80001ca6 <lfs_cache_read+0x146>
    80001c40:	0124a023          	sw	s2,0(s1)
    80001c44:	0009b783          	ld	a5,0(s3)
    80001c48:	5790                	lw	a2,40(a5)
    80001c4a:	02c4763b          	remuw	a2,s0,a2
    80001c4e:	40c4063b          	subw	a2,s0,a2
    80001c52:	c0d0                	sw	a2,4(s1)
    80001c54:	0009b503          	ld	a0,0(s3)
    80001c58:	651c                	ld	a5,8(a0)
    80001c5a:	5518                	lw	a4,40(a0)
    80001c5c:	6494                	ld	a3,8(s1)
    80001c5e:	2601                	sext.w	a2,a2
    80001c60:	85ca                	mv	a1,s2
    80001c62:	9782                	jalr	a5
    80001c64:	e939                	bnez	a0,80001cba <lfs_cache_read+0x15a>
    80001c66:	000a0663          	beqz	s4,80001c72 <lfs_cache_read+0x112>
    80001c6a:	000a2783          	lw	a5,0(s4)
    80001c6e:	f1278de3          	beq	a5,s2,80001b88 <lfs_cache_read+0x28>
    80001c72:	409c                	lw	a5,0(s1)
    80001c74:	f72783e3          	beq	a5,s2,80001bda <lfs_cache_read+0x7a>
    80001c78:	0009b503          	ld	a0,0(s3)
    80001c7c:	551c                	lw	a5,40(a0)
    80001c7e:	02f4773b          	remuw	a4,s0,a5
    80001c82:	ff5d                	bnez	a4,80001c40 <lfs_cache_read+0xe0>
    80001c84:	fafb6ee3          	bltu	s6,a5,80001c40 <lfs_cache_read+0xe0>
    80001c88:	02fb77bb          	remuw	a5,s6,a5
    80001c8c:	00078b9b          	sext.w	s7,a5
    80001c90:	40fb0b3b          	subw	s6,s6,a5
    80001c94:	651c                	ld	a5,8(a0)
    80001c96:	000b071b          	sext.w	a4,s6
    80001c9a:	86d6                	mv	a3,s5
    80001c9c:	8622                	mv	a2,s0
    80001c9e:	85ca                	mv	a1,s2
    80001ca0:	9782                	jalr	a5
    80001ca2:	d159                	beqz	a0,80001c28 <lfs_cache_read+0xc8>
    80001ca4:	6ba2                	ld	s7,8(sp)
    80001ca6:	60a6                	ld	ra,72(sp)
    80001ca8:	6406                	ld	s0,64(sp)
    80001caa:	74e2                	ld	s1,56(sp)
    80001cac:	7942                	ld	s2,48(sp)
    80001cae:	79a2                	ld	s3,40(sp)
    80001cb0:	7a02                	ld	s4,32(sp)
    80001cb2:	6ae2                	ld	s5,24(sp)
    80001cb4:	6b42                	ld	s6,16(sp)
    80001cb6:	6161                	addi	sp,sp,80
    80001cb8:	8082                	ret
    80001cba:	6ba2                	ld	s7,8(sp)
    80001cbc:	b7ed                	j	80001ca6 <lfs_cache_read+0x146>
    80001cbe:	4501                	li	a0,0
    80001cc0:	b7dd                	j	80001ca6 <lfs_cache_read+0x146>

0000000080001cc2 <lfs_bd_read>:
    80001cc2:	1141                	addi	sp,sp,-16
    80001cc4:	e406                	sd	ra,8(sp)
    80001cc6:	87b6                	mv	a5,a3
    80001cc8:	883a                	mv	a6,a4
    80001cca:	8732                	mv	a4,a2
    80001ccc:	86ae                	mv	a3,a1
    80001cce:	4601                	li	a2,0
    80001cd0:	02050593          	addi	a1,a0,32
    80001cd4:	e8dff0ef          	jal	80001b60 <lfs_cache_read>
    80001cd8:	60a2                	ld	ra,8(sp)
    80001cda:	0141                	addi	sp,sp,16
    80001cdc:	8082                	ret

0000000080001cde <lfs_dir_fetch>:
    80001cde:	7119                	addi	sp,sp,-128
    80001ce0:	fc86                	sd	ra,120(sp)
    80001ce2:	f8a2                	sd	s0,112(sp)
    80001ce4:	f4a6                	sd	s1,104(sp)
    80001ce6:	ecce                	sd	s3,88(sp)
    80001ce8:	e8d2                	sd	s4,80(sp)
    80001cea:	e4d6                	sd	s5,72(sp)
    80001cec:	e0da                	sd	s6,64(sp)
    80001cee:	fc5e                	sd	s7,56(sp)
    80001cf0:	84aa                	mv	s1,a0
    80001cf2:	8a2e                	mv	s4,a1
    80001cf4:	421c                	lw	a5,0(a2)
    80001cf6:	cc3e                	sw	a5,24(sp)
    80001cf8:	425c                	lw	a5,4(a2)
    80001cfa:	ce3e                	sw	a5,28(sp)
    80001cfc:	01810a93          	addi	s5,sp,24
    80001d00:	4b01                	li	s6,0
    80001d02:	4b81                	li	s7,0
    80001d04:	000aa983          	lw	s3,0(s5)
    80001d08:	4741                	li	a4,16
    80001d0a:	0034                	addi	a3,sp,8
    80001d0c:	4601                	li	a2,0
    80001d0e:	85ce                	mv	a1,s3
    80001d10:	8526                	mv	a0,s1
    80001d12:	fb1ff0ef          	jal	80001cc2 <lfs_bd_read>
    80001d16:	842a                	mv	s0,a0
    80001d18:	0028                	addi	a0,sp,8
    80001d1a:	c17ff0ef          	jal	80001930 <lfs_dir_fromle32>
    80001d1e:	c805                	beqz	s0,80001d4e <lfs_dir_fetch+0x70>
    80001d20:	fcc00793          	li	a5,-52
    80001d24:	00f41a63          	bne	s0,a5,80001d38 <lfs_dir_fetch+0x5a>
    80001d28:	2b05                	addiw	s6,s6,1
    80001d2a:	0a91                	addi	s5,s5,4
    80001d2c:	4789                	li	a5,2
    80001d2e:	fcfb1be3          	bne	s6,a5,80001d04 <lfs_dir_fetch+0x26>
    80001d32:	100b8b63          	beqz	s7,80001e48 <lfs_dir_fetch+0x16a>
    80001d36:	4401                	li	s0,0
    80001d38:	8522                	mv	a0,s0
    80001d3a:	70e6                	ld	ra,120(sp)
    80001d3c:	7446                	ld	s0,112(sp)
    80001d3e:	74a6                	ld	s1,104(sp)
    80001d40:	69e6                	ld	s3,88(sp)
    80001d42:	6a46                	ld	s4,80(sp)
    80001d44:	6aa6                	ld	s5,72(sp)
    80001d46:	6b06                	ld	s6,64(sp)
    80001d48:	7be2                	ld	s7,56(sp)
    80001d4a:	6109                	addi	sp,sp,128
    80001d4c:	8082                	ret
    80001d4e:	000b8863          	beqz	s7,80001d5e <lfs_dir_fetch+0x80>
    80001d52:	47a2                	lw	a5,8(sp)
    80001d54:	020a2703          	lw	a4,32(s4)
    80001d58:	9f99                	subw	a5,a5,a4
    80001d5a:	fc07c7e3          	bltz	a5,80001d28 <lfs_dir_fetch+0x4a>
    80001d5e:	47b2                	lw	a5,12(sp)
    80001d60:	1786                	slli	a5,a5,0x21
    80001d62:	9385                	srli	a5,a5,0x21
    80001d64:	474d                	li	a4,19
    80001d66:	fcf771e3          	bgeu	a4,a5,80001d28 <lfs_dir_fetch+0x4a>
    80001d6a:	6098                	ld	a4,0(s1)
    80001d6c:	5b18                	lw	a4,48(a4)
    80001d6e:	faf76de3          	bltu	a4,a5,80001d28 <lfs_dir_fetch+0x4a>
    80001d72:	f862                	sd	s8,48(sp)
    80001d74:	f466                	sd	s9,40(sp)
    80001d76:	57fd                	li	a5,-1
    80001d78:	c23e                	sw	a5,4(sp)
    80001d7a:	0028                	addi	a0,sp,8
    80001d7c:	c6fff0ef          	jal	800019ea <lfs_dir_tole32>
    80001d80:	4641                	li	a2,16
    80001d82:	002c                	addi	a1,sp,8
    80001d84:	0048                	addi	a0,sp,4
    80001d86:	563020ef          	jal	80004ae8 <lfs_crc>
    80001d8a:	0028                	addi	a0,sp,8
    80001d8c:	ba5ff0ef          	jal	80001930 <lfs_dir_fromle32>
    80001d90:	4c32                	lw	s8,12(sp)
    80001d92:	1c06                	slli	s8,s8,0x21
    80001d94:	021c5c13          	srli	s8,s8,0x21
    80001d98:	02048c93          	addi	s9,s1,32
    80001d9c:	47c1                	li	a5,16
    80001d9e:	02fc0a63          	beq	s8,a5,80001dd2 <lfs_dir_fetch+0xf4>
    80001da2:	f0ca                	sd	s2,96(sp)
    80001da4:	4941                	li	s2,16
    80001da6:	4805                	li	a6,1
    80001da8:	00310793          	addi	a5,sp,3
    80001dac:	874a                	mv	a4,s2
    80001dae:	86ce                	mv	a3,s3
    80001db0:	4601                	li	a2,0
    80001db2:	85e6                	mv	a1,s9
    80001db4:	8526                	mv	a0,s1
    80001db6:	dabff0ef          	jal	80001b60 <lfs_cache_read>
    80001dba:	842a                	mv	s0,a0
    80001dbc:	e53d                	bnez	a0,80001e2a <lfs_dir_fetch+0x14c>
    80001dbe:	4605                	li	a2,1
    80001dc0:	00310593          	addi	a1,sp,3
    80001dc4:	0048                	addi	a0,sp,4
    80001dc6:	523020ef          	jal	80004ae8 <lfs_crc>
    80001dca:	2905                	addiw	s2,s2,1
    80001dcc:	fd2c1de3          	bne	s8,s2,80001da6 <lfs_dir_fetch+0xc8>
    80001dd0:	7906                	ld	s2,96(sp)
    80001dd2:	4792                	lw	a5,4(sp)
    80001dd4:	e7bd                	bnez	a5,80001e42 <lfs_dir_fetch+0x164>
    80001dd6:	01fb571b          	srliw	a4,s6,0x1f
    80001dda:	016707bb          	addw	a5,a4,s6
    80001dde:	8b85                	andi	a5,a5,1
    80001de0:	9f99                	subw	a5,a5,a4
    80001de2:	078a                	slli	a5,a5,0x2
    80001de4:	02078793          	addi	a5,a5,32
    80001de8:	978a                	add	a5,a5,sp
    80001dea:	ff87a783          	lw	a5,-8(a5)
    80001dee:	00fa2423          	sw	a5,8(s4)
    80001df2:	001b079b          	addiw	a5,s6,1
    80001df6:	01f7d71b          	srliw	a4,a5,0x1f
    80001dfa:	9fb9                	addw	a5,a5,a4
    80001dfc:	8b85                	andi	a5,a5,1
    80001dfe:	9f99                	subw	a5,a5,a4
    80001e00:	078a                	slli	a5,a5,0x2
    80001e02:	02078793          	addi	a5,a5,32
    80001e06:	978a                	add	a5,a5,sp
    80001e08:	ff87a783          	lw	a5,-8(a5)
    80001e0c:	00fa2623          	sw	a5,12(s4)
    80001e10:	47c1                	li	a5,16
    80001e12:	00fa2823          	sw	a5,16(s4)
    80001e16:	67a2                	ld	a5,8(sp)
    80001e18:	02fa3023          	sd	a5,32(s4)
    80001e1c:	67c2                	ld	a5,16(sp)
    80001e1e:	02fa3423          	sd	a5,40(s4)
    80001e22:	4b85                	li	s7,1
    80001e24:	7c42                	ld	s8,48(sp)
    80001e26:	7ca2                	ld	s9,40(sp)
    80001e28:	b701                	j	80001d28 <lfs_dir_fetch+0x4a>
    80001e2a:	fcc00793          	li	a5,-52
    80001e2e:	00f50663          	beq	a0,a5,80001e3a <lfs_dir_fetch+0x15c>
    80001e32:	7906                	ld	s2,96(sp)
    80001e34:	7c42                	ld	s8,48(sp)
    80001e36:	7ca2                	ld	s9,40(sp)
    80001e38:	b701                	j	80001d38 <lfs_dir_fetch+0x5a>
    80001e3a:	7906                	ld	s2,96(sp)
    80001e3c:	7c42                	ld	s8,48(sp)
    80001e3e:	7ca2                	ld	s9,40(sp)
    80001e40:	b5e5                	j	80001d28 <lfs_dir_fetch+0x4a>
    80001e42:	7c42                	ld	s8,48(sp)
    80001e44:	7ca2                	ld	s9,40(sp)
    80001e46:	b5cd                	j	80001d28 <lfs_dir_fetch+0x4a>
    80001e48:	fcc00413          	li	s0,-52
    80001e4c:	b5f5                	j	80001d38 <lfs_dir_fetch+0x5a>

0000000080001e4e <lfs_dir_next>:
    80001e4e:	715d                	addi	sp,sp,-80
    80001e50:	e486                	sd	ra,72(sp)
    80001e52:	e0a2                	sd	s0,64(sp)
    80001e54:	fc26                	sd	s1,56(sp)
    80001e56:	f84a                	sd	s2,48(sp)
    80001e58:	f44e                	sd	s3,40(sp)
    80001e5a:	e45e                	sd	s7,8(sp)
    80001e5c:	89aa                	mv	s3,a0
    80001e5e:	842e                	mv	s0,a1
    80001e60:	8bb2                	mv	s7,a2
    80001e62:	4990                	lw	a2,16(a1)
    80001e64:	51d8                	lw	a4,36(a1)
    80001e66:	02061693          	slli	a3,a2,0x20
    80001e6a:	9281                	srli	a3,a3,0x20
    80001e6c:	06b1                	addi	a3,a3,12
    80001e6e:	02171793          	slli	a5,a4,0x21
    80001e72:	9385                	srli	a5,a5,0x21
    80001e74:	37f1                	addiw	a5,a5,-4
    80001e76:	1782                	slli	a5,a5,0x20
    80001e78:	9381                	srli	a5,a5,0x20
    80001e7a:	04d7f663          	bgeu	a5,a3,80001ec6 <lfs_dir_next+0x78>
    80001e7e:	f052                	sd	s4,32(sp)
    80001e80:	ec56                	sd	s5,24(sp)
    80001e82:	e85a                	sd	s6,16(sp)
    80001e84:	02858a93          	addi	s5,a1,40
    80001e88:	4941                	li	s2,16
    80001e8a:	80000a37          	lui	s4,0x80000
    80001e8e:	fffa4a13          	not	s4,s4
    80001e92:	4b6d                	li	s6,27
    80001e94:	08075163          	bgez	a4,80001f16 <lfs_dir_next+0xc8>
    80001e98:	8656                	mv	a2,s5
    80001e9a:	85a2                	mv	a1,s0
    80001e9c:	854e                	mv	a0,s3
    80001e9e:	e41ff0ef          	jal	80001cde <lfs_dir_fetch>
    80001ea2:	84aa                	mv	s1,a0
    80001ea4:	e941                	bnez	a0,80001f34 <lfs_dir_next+0xe6>
    80001ea6:	01242823          	sw	s2,16(s0)
    80001eaa:	4c5c                	lw	a5,28(s0)
    80001eac:	27d1                	addiw	a5,a5,20
    80001eae:	cc5c                	sw	a5,28(s0)
    80001eb0:	5058                	lw	a4,36(s0)
    80001eb2:	864a                	mv	a2,s2
    80001eb4:	014777b3          	and	a5,a4,s4
    80001eb8:	37f1                	addiw	a5,a5,-4
    80001eba:	fcfb7de3          	bgeu	s6,a5,80001e94 <lfs_dir_next+0x46>
    80001ebe:	4641                	li	a2,16
    80001ec0:	7a02                	ld	s4,32(sp)
    80001ec2:	6ae2                	ld	s5,24(sp)
    80001ec4:	6b42                	ld	s6,16(sp)
    80001ec6:	004b8913          	addi	s2,s7,4
    80001eca:	4731                	li	a4,12
    80001ecc:	86ca                	mv	a3,s2
    80001ece:	440c                	lw	a1,8(s0)
    80001ed0:	854e                	mv	a0,s3
    80001ed2:	df1ff0ef          	jal	80001cc2 <lfs_bd_read>
    80001ed6:	84aa                	mv	s1,a0
    80001ed8:	854a                	mv	a0,s2
    80001eda:	bcbff0ef          	jal	80001aa4 <lfs_entry_fromle32>
    80001ede:	e0b1                	bnez	s1,80001f22 <lfs_dir_next+0xd4>
    80001ee0:	4818                	lw	a4,16(s0)
    80001ee2:	00eba023          	sw	a4,0(s7)
    80001ee6:	005bc783          	lbu	a5,5(s7)
    80001eea:	2791                	addiw	a5,a5,4
    80001eec:	006bc683          	lbu	a3,6(s7)
    80001ef0:	9fb5                	addw	a5,a5,a3
    80001ef2:	007bc683          	lbu	a3,7(s7)
    80001ef6:	9fb5                	addw	a5,a5,a3
    80001ef8:	9fb9                	addw	a5,a5,a4
    80001efa:	c81c                	sw	a5,16(s0)
    80001efc:	005bc783          	lbu	a5,5(s7)
    80001f00:	2791                	addiw	a5,a5,4
    80001f02:	006bc703          	lbu	a4,6(s7)
    80001f06:	9fb9                	addw	a5,a5,a4
    80001f08:	007bc703          	lbu	a4,7(s7)
    80001f0c:	9fb9                	addw	a5,a5,a4
    80001f0e:	4c58                	lw	a4,28(s0)
    80001f10:	9fb9                	addw	a5,a5,a4
    80001f12:	cc5c                	sw	a5,28(s0)
    80001f14:	a039                	j	80001f22 <lfs_dir_next+0xd4>
    80001f16:	00cba023          	sw	a2,0(s7)
    80001f1a:	54f9                	li	s1,-2
    80001f1c:	7a02                	ld	s4,32(sp)
    80001f1e:	6ae2                	ld	s5,24(sp)
    80001f20:	6b42                	ld	s6,16(sp)
    80001f22:	8526                	mv	a0,s1
    80001f24:	60a6                	ld	ra,72(sp)
    80001f26:	6406                	ld	s0,64(sp)
    80001f28:	74e2                	ld	s1,56(sp)
    80001f2a:	7942                	ld	s2,48(sp)
    80001f2c:	79a2                	ld	s3,40(sp)
    80001f2e:	6ba2                	ld	s7,8(sp)
    80001f30:	6161                	addi	sp,sp,80
    80001f32:	8082                	ret
    80001f34:	7a02                	ld	s4,32(sp)
    80001f36:	6ae2                	ld	s5,24(sp)
    80001f38:	6b42                	ld	s6,16(sp)
    80001f3a:	b7e5                	j	80001f22 <lfs_dir_next+0xd4>

0000000080001f3c <lfs_moved>:
    80001f3c:	7119                	addi	sp,sp,-128
    80001f3e:	fc86                	sd	ra,120(sp)
    80001f40:	f0ca                	sd	s2,96(sp)
    80001f42:	4518                	lw	a4,8(a0)
    80001f44:	57fd                	li	a5,-1
    80001f46:	08f70063          	beq	a4,a5,80001fc6 <lfs_moved+0x8a>
    80001f4a:	f8a2                	sd	s0,112(sp)
    80001f4c:	f4a6                	sd	s1,104(sp)
    80001f4e:	842a                	mv	s0,a0
    80001f50:	84ae                	mv	s1,a1
    80001f52:	4558                	lw	a4,12(a0)
    80001f54:	06f70f63          	beq	a4,a5,80001fd2 <lfs_moved+0x96>
    80001f58:	c482                	sw	zero,72(sp)
    80001f5a:	4785                	li	a5,1
    80001f5c:	c6be                	sw	a5,76(sp)
    80001f5e:	00b0                	addi	a2,sp,72
    80001f60:	082c                	addi	a1,sp,24
    80001f62:	d7dff0ef          	jal	80001cde <lfs_dir_fetch>
    80001f66:	892a                	mv	s2,a0
    80001f68:	e549                	bnez	a0,80001ff2 <lfs_moved+0xb6>
    80001f6a:	ecce                	sd	s3,88(sp)
    80001f6c:	e8d2                	sd	s4,80(sp)
    80001f6e:	59fd                	li	s3,-1
    80001f70:	5a79                	li	s4,-2
    80001f72:	a019                	j	80001f78 <lfs_moved+0x3c>
    80001f74:	07451963          	bne	a0,s4,80001fe6 <lfs_moved+0xaa>
    80001f78:	4786                	lw	a5,64(sp)
    80001f7a:	07378f63          	beq	a5,s3,80001ff8 <lfs_moved+0xbc>
    80001f7e:	4796                	lw	a5,68(sp)
    80001f80:	03378e63          	beq	a5,s3,80001fbc <lfs_moved+0x80>
    80001f84:	0090                	addi	a2,sp,64
    80001f86:	082c                	addi	a1,sp,24
    80001f88:	8522                	mv	a0,s0
    80001f8a:	d55ff0ef          	jal	80001cde <lfs_dir_fetch>
    80001f8e:	e531                	bnez	a0,80001fda <lfs_moved+0x9e>
    80001f90:	0030                	addi	a2,sp,8
    80001f92:	082c                	addi	a1,sp,24
    80001f94:	8522                	mv	a0,s0
    80001f96:	eb9ff0ef          	jal	80001e4e <lfs_dir_next>
    80001f9a:	fd69                	bnez	a0,80001f74 <lfs_moved+0x38>
    80001f9c:	00c10783          	lb	a5,12(sp)
    80001fa0:	fe07c8e3          	bltz	a5,80001f90 <lfs_moved+0x54>
    80001fa4:	4621                	li	a2,8
    80001fa6:	85a6                	mv	a1,s1
    80001fa8:	0808                	addi	a0,sp,16
    80001faa:	205030ef          	jal	800059ae <memcmp>
    80001fae:	f16d                	bnez	a0,80001f90 <lfs_moved+0x54>
    80001fb0:	4905                	li	s2,1
    80001fb2:	7446                	ld	s0,112(sp)
    80001fb4:	74a6                	ld	s1,104(sp)
    80001fb6:	69e6                	ld	s3,88(sp)
    80001fb8:	6a46                	ld	s4,80(sp)
    80001fba:	a039                	j	80001fc8 <lfs_moved+0x8c>
    80001fbc:	7446                	ld	s0,112(sp)
    80001fbe:	74a6                	ld	s1,104(sp)
    80001fc0:	69e6                	ld	s3,88(sp)
    80001fc2:	6a46                	ld	s4,80(sp)
    80001fc4:	a011                	j	80001fc8 <lfs_moved+0x8c>
    80001fc6:	4901                	li	s2,0
    80001fc8:	854a                	mv	a0,s2
    80001fca:	70e6                	ld	ra,120(sp)
    80001fcc:	7906                	ld	s2,96(sp)
    80001fce:	6109                	addi	sp,sp,128
    80001fd0:	8082                	ret
    80001fd2:	4901                	li	s2,0
    80001fd4:	7446                	ld	s0,112(sp)
    80001fd6:	74a6                	ld	s1,104(sp)
    80001fd8:	bfc5                	j	80001fc8 <lfs_moved+0x8c>
    80001fda:	892a                	mv	s2,a0
    80001fdc:	7446                	ld	s0,112(sp)
    80001fde:	74a6                	ld	s1,104(sp)
    80001fe0:	69e6                	ld	s3,88(sp)
    80001fe2:	6a46                	ld	s4,80(sp)
    80001fe4:	b7d5                	j	80001fc8 <lfs_moved+0x8c>
    80001fe6:	892a                	mv	s2,a0
    80001fe8:	7446                	ld	s0,112(sp)
    80001fea:	74a6                	ld	s1,104(sp)
    80001fec:	69e6                	ld	s3,88(sp)
    80001fee:	6a46                	ld	s4,80(sp)
    80001ff0:	bfe1                	j	80001fc8 <lfs_moved+0x8c>
    80001ff2:	7446                	ld	s0,112(sp)
    80001ff4:	74a6                	ld	s1,104(sp)
    80001ff6:	bfc9                	j	80001fc8 <lfs_moved+0x8c>
    80001ff8:	7446                	ld	s0,112(sp)
    80001ffa:	74a6                	ld	s1,104(sp)
    80001ffc:	69e6                	ld	s3,88(sp)
    80001ffe:	6a46                	ld	s4,80(sp)
    80002000:	b7e1                	j	80001fc8 <lfs_moved+0x8c>

0000000080002002 <lfs_parent>:
    80002002:	4518                	lw	a4,8(a0)
    80002004:	57fd                	li	a5,-1
    80002006:	0af70263          	beq	a4,a5,800020aa <lfs_parent+0xa8>
    8000200a:	7139                	addi	sp,sp,-64
    8000200c:	fc06                	sd	ra,56(sp)
    8000200e:	f822                	sd	s0,48(sp)
    80002010:	f426                	sd	s1,40(sp)
    80002012:	f04a                	sd	s2,32(sp)
    80002014:	ec4e                	sd	s3,24(sp)
    80002016:	892a                	mv	s2,a0
    80002018:	89ae                	mv	s3,a1
    8000201a:	8432                	mv	s0,a2
    8000201c:	84b6                	mv	s1,a3
    8000201e:	4558                	lw	a4,12(a0)
    80002020:	08f70763          	beq	a4,a5,800020ae <lfs_parent+0xac>
    80002024:	e852                	sd	s4,16(sp)
    80002026:	e456                	sd	s5,8(sp)
    80002028:	e05a                	sd	s6,0(sp)
    8000202a:	02062423          	sw	zero,40(a2) # 10028 <_ftext-0x7ffeffd8>
    8000202e:	4785                	li	a5,1
    80002030:	d65c                	sw	a5,44(a2)
    80002032:	5afd                	li	s5,-1
    80002034:	02860b13          	addi	s6,a2,40
    80002038:	02000a13          	li	s4,32
    8000203c:	541c                	lw	a5,40(s0)
    8000203e:	09578f63          	beq	a5,s5,800020dc <lfs_parent+0xda>
    80002042:	545c                	lw	a5,44(s0)
    80002044:	05578e63          	beq	a5,s5,800020a0 <lfs_parent+0x9e>
    80002048:	865a                	mv	a2,s6
    8000204a:	85a2                	mv	a1,s0
    8000204c:	854a                	mv	a0,s2
    8000204e:	c91ff0ef          	jal	80001cde <lfs_dir_fetch>
    80002052:	e951                	bnez	a0,800020e6 <lfs_parent+0xe4>
    80002054:	8626                	mv	a2,s1
    80002056:	85a2                	mv	a1,s0
    80002058:	854a                	mv	a0,s2
    8000205a:	df5ff0ef          	jal	80001e4e <lfs_dir_next>
    8000205e:	e915                	bnez	a0,80002092 <lfs_parent+0x90>
    80002060:	0044c783          	lbu	a5,4(s1)
    80002064:	0707f793          	andi	a5,a5,112
    80002068:	ff4796e3          	bne	a5,s4,80002054 <lfs_parent+0x52>
    8000206c:	449c                	lw	a5,8(s1)
    8000206e:	0009a703          	lw	a4,0(s3)
    80002072:	04e78663          	beq	a5,a4,800020be <lfs_parent+0xbc>
    80002076:	44d0                	lw	a2,12(s1)
    80002078:	0049a683          	lw	a3,4(s3)
    8000207c:	04d60663          	beq	a2,a3,800020c8 <lfs_parent+0xc6>
    80002080:	04d78963          	beq	a5,a3,800020d2 <lfs_parent+0xd0>
    80002084:	fcc718e3          	bne	a4,a2,80002054 <lfs_parent+0x52>
    80002088:	4505                	li	a0,1
    8000208a:	6a42                	ld	s4,16(sp)
    8000208c:	6aa2                	ld	s5,8(sp)
    8000208e:	6b02                	ld	s6,0(sp)
    80002090:	a005                	j	800020b0 <lfs_parent+0xae>
    80002092:	57f9                	li	a5,-2
    80002094:	faf504e3          	beq	a0,a5,8000203c <lfs_parent+0x3a>
    80002098:	6a42                	ld	s4,16(sp)
    8000209a:	6aa2                	ld	s5,8(sp)
    8000209c:	6b02                	ld	s6,0(sp)
    8000209e:	a809                	j	800020b0 <lfs_parent+0xae>
    800020a0:	4501                	li	a0,0
    800020a2:	6a42                	ld	s4,16(sp)
    800020a4:	6aa2                	ld	s5,8(sp)
    800020a6:	6b02                	ld	s6,0(sp)
    800020a8:	a021                	j	800020b0 <lfs_parent+0xae>
    800020aa:	4501                	li	a0,0
    800020ac:	8082                	ret
    800020ae:	4501                	li	a0,0
    800020b0:	70e2                	ld	ra,56(sp)
    800020b2:	7442                	ld	s0,48(sp)
    800020b4:	74a2                	ld	s1,40(sp)
    800020b6:	7902                	ld	s2,32(sp)
    800020b8:	69e2                	ld	s3,24(sp)
    800020ba:	6121                	addi	sp,sp,64
    800020bc:	8082                	ret
    800020be:	4505                	li	a0,1
    800020c0:	6a42                	ld	s4,16(sp)
    800020c2:	6aa2                	ld	s5,8(sp)
    800020c4:	6b02                	ld	s6,0(sp)
    800020c6:	b7ed                	j	800020b0 <lfs_parent+0xae>
    800020c8:	4505                	li	a0,1
    800020ca:	6a42                	ld	s4,16(sp)
    800020cc:	6aa2                	ld	s5,8(sp)
    800020ce:	6b02                	ld	s6,0(sp)
    800020d0:	b7c5                	j	800020b0 <lfs_parent+0xae>
    800020d2:	4505                	li	a0,1
    800020d4:	6a42                	ld	s4,16(sp)
    800020d6:	6aa2                	ld	s5,8(sp)
    800020d8:	6b02                	ld	s6,0(sp)
    800020da:	bfd9                	j	800020b0 <lfs_parent+0xae>
    800020dc:	4501                	li	a0,0
    800020de:	6a42                	ld	s4,16(sp)
    800020e0:	6aa2                	ld	s5,8(sp)
    800020e2:	6b02                	ld	s6,0(sp)
    800020e4:	b7f1                	j	800020b0 <lfs_parent+0xae>
    800020e6:	6a42                	ld	s4,16(sp)
    800020e8:	6aa2                	ld	s5,8(sp)
    800020ea:	6b02                	ld	s6,0(sp)
    800020ec:	b7d1                	j	800020b0 <lfs_parent+0xae>

00000000800020ee <lfs_pred>:
    800020ee:	7139                	addi	sp,sp,-64
    800020f0:	fc06                	sd	ra,56(sp)
    800020f2:	f04a                	sd	s2,32(sp)
    800020f4:	4518                	lw	a4,8(a0)
    800020f6:	57fd                	li	a5,-1
    800020f8:	06f70a63          	beq	a4,a5,8000216c <lfs_pred+0x7e>
    800020fc:	f822                	sd	s0,48(sp)
    800020fe:	f426                	sd	s1,40(sp)
    80002100:	ec4e                	sd	s3,24(sp)
    80002102:	842a                	mv	s0,a0
    80002104:	89ae                	mv	s3,a1
    80002106:	84b2                	mv	s1,a2
    80002108:	4558                	lw	a4,12(a0)
    8000210a:	06f70763          	beq	a4,a5,80002178 <lfs_pred+0x8a>
    8000210e:	c402                	sw	zero,8(sp)
    80002110:	4785                	li	a5,1
    80002112:	c63e                	sw	a5,12(sp)
    80002114:	0030                	addi	a2,sp,8
    80002116:	85a6                	mv	a1,s1
    80002118:	bc7ff0ef          	jal	80001cde <lfs_dir_fetch>
    8000211c:	892a                	mv	s2,a0
    8000211e:	e951                	bnez	a0,800021b2 <lfs_pred+0xc4>
    80002120:	e852                	sd	s4,16(sp)
    80002122:	5a7d                	li	s4,-1
    80002124:	549c                	lw	a5,40(s1)
    80002126:	09478a63          	beq	a5,s4,800021ba <lfs_pred+0xcc>
    8000212a:	54d8                	lw	a4,44(s1)
    8000212c:	03470b63          	beq	a4,s4,80002162 <lfs_pred+0x74>
    80002130:	0009a683          	lw	a3,0(s3)
    80002134:	04f68763          	beq	a3,a5,80002182 <lfs_pred+0x94>
    80002138:	0049a603          	lw	a2,4(s3)
    8000213c:	04e60963          	beq	a2,a4,8000218e <lfs_pred+0xa0>
    80002140:	04f60d63          	beq	a2,a5,8000219a <lfs_pred+0xac>
    80002144:	06e68163          	beq	a3,a4,800021a6 <lfs_pred+0xb8>
    80002148:	02848613          	addi	a2,s1,40
    8000214c:	85a6                	mv	a1,s1
    8000214e:	8522                	mv	a0,s0
    80002150:	b8fff0ef          	jal	80001cde <lfs_dir_fetch>
    80002154:	d961                	beqz	a0,80002124 <lfs_pred+0x36>
    80002156:	892a                	mv	s2,a0
    80002158:	7442                	ld	s0,48(sp)
    8000215a:	74a2                	ld	s1,40(sp)
    8000215c:	69e2                	ld	s3,24(sp)
    8000215e:	6a42                	ld	s4,16(sp)
    80002160:	a039                	j	8000216e <lfs_pred+0x80>
    80002162:	7442                	ld	s0,48(sp)
    80002164:	74a2                	ld	s1,40(sp)
    80002166:	69e2                	ld	s3,24(sp)
    80002168:	6a42                	ld	s4,16(sp)
    8000216a:	a011                	j	8000216e <lfs_pred+0x80>
    8000216c:	4901                	li	s2,0
    8000216e:	854a                	mv	a0,s2
    80002170:	70e2                	ld	ra,56(sp)
    80002172:	7902                	ld	s2,32(sp)
    80002174:	6121                	addi	sp,sp,64
    80002176:	8082                	ret
    80002178:	4901                	li	s2,0
    8000217a:	7442                	ld	s0,48(sp)
    8000217c:	74a2                	ld	s1,40(sp)
    8000217e:	69e2                	ld	s3,24(sp)
    80002180:	b7fd                	j	8000216e <lfs_pred+0x80>
    80002182:	4905                	li	s2,1
    80002184:	7442                	ld	s0,48(sp)
    80002186:	74a2                	ld	s1,40(sp)
    80002188:	69e2                	ld	s3,24(sp)
    8000218a:	6a42                	ld	s4,16(sp)
    8000218c:	b7cd                	j	8000216e <lfs_pred+0x80>
    8000218e:	4905                	li	s2,1
    80002190:	7442                	ld	s0,48(sp)
    80002192:	74a2                	ld	s1,40(sp)
    80002194:	69e2                	ld	s3,24(sp)
    80002196:	6a42                	ld	s4,16(sp)
    80002198:	bfd9                	j	8000216e <lfs_pred+0x80>
    8000219a:	4905                	li	s2,1
    8000219c:	7442                	ld	s0,48(sp)
    8000219e:	74a2                	ld	s1,40(sp)
    800021a0:	69e2                	ld	s3,24(sp)
    800021a2:	6a42                	ld	s4,16(sp)
    800021a4:	b7e9                	j	8000216e <lfs_pred+0x80>
    800021a6:	4905                	li	s2,1
    800021a8:	7442                	ld	s0,48(sp)
    800021aa:	74a2                	ld	s1,40(sp)
    800021ac:	69e2                	ld	s3,24(sp)
    800021ae:	6a42                	ld	s4,16(sp)
    800021b0:	bf7d                	j	8000216e <lfs_pred+0x80>
    800021b2:	7442                	ld	s0,48(sp)
    800021b4:	74a2                	ld	s1,40(sp)
    800021b6:	69e2                	ld	s3,24(sp)
    800021b8:	bf5d                	j	8000216e <lfs_pred+0x80>
    800021ba:	7442                	ld	s0,48(sp)
    800021bc:	74a2                	ld	s1,40(sp)
    800021be:	69e2                	ld	s3,24(sp)
    800021c0:	6a42                	ld	s4,16(sp)
    800021c2:	b775                	j	8000216e <lfs_pred+0x80>

00000000800021c4 <lfs_cache_cmp>:
    800021c4:	06080763          	beqz	a6,80002232 <lfs_cache_cmp+0x6e>
    800021c8:	715d                	addi	sp,sp,-80
    800021ca:	e486                	sd	ra,72(sp)
    800021cc:	e0a2                	sd	s0,64(sp)
    800021ce:	fc26                	sd	s1,56(sp)
    800021d0:	f84a                	sd	s2,48(sp)
    800021d2:	f44e                	sd	s3,40(sp)
    800021d4:	f052                	sd	s4,32(sp)
    800021d6:	ec56                	sd	s5,24(sp)
    800021d8:	e85a                	sd	s6,16(sp)
    800021da:	89aa                	mv	s3,a0
    800021dc:	8a2e                	mv	s4,a1
    800021de:	8ab2                	mv	s5,a2
    800021e0:	8b36                	mv	s6,a3
    800021e2:	1802                	slli	a6,a6,0x20
    800021e4:	02085813          	srli	a6,a6,0x20
    800021e8:	010784b3          	add	s1,a5,a6
    800021ec:	843e                	mv	s0,a5
    800021ee:	40f7093b          	subw	s2,a4,a5
    800021f2:	4805                	li	a6,1
    800021f4:	00f10793          	addi	a5,sp,15
    800021f8:	0089073b          	addw	a4,s2,s0
    800021fc:	86da                	mv	a3,s6
    800021fe:	8656                	mv	a2,s5
    80002200:	85d2                	mv	a1,s4
    80002202:	854e                	mv	a0,s3
    80002204:	95dff0ef          	jal	80001b60 <lfs_cache_read>
    80002208:	e919                	bnez	a0,8000221e <lfs_cache_cmp+0x5a>
    8000220a:	00044703          	lbu	a4,0(s0)
    8000220e:	00f14783          	lbu	a5,15(sp)
    80002212:	00f71663          	bne	a4,a5,8000221e <lfs_cache_cmp+0x5a>
    80002216:	0405                	addi	s0,s0,1
    80002218:	fc941de3          	bne	s0,s1,800021f2 <lfs_cache_cmp+0x2e>
    8000221c:	4505                	li	a0,1
    8000221e:	60a6                	ld	ra,72(sp)
    80002220:	6406                	ld	s0,64(sp)
    80002222:	74e2                	ld	s1,56(sp)
    80002224:	7942                	ld	s2,48(sp)
    80002226:	79a2                	ld	s3,40(sp)
    80002228:	7a02                	ld	s4,32(sp)
    8000222a:	6ae2                	ld	s5,24(sp)
    8000222c:	6b42                	ld	s6,16(sp)
    8000222e:	6161                	addi	sp,sp,80
    80002230:	8082                	ret
    80002232:	4505                	li	a0,1
    80002234:	8082                	ret

0000000080002236 <lfs_dir_find>:
    80002236:	7175                	addi	sp,sp,-144
    80002238:	e506                	sd	ra,136(sp)
    8000223a:	e122                	sd	s0,128(sp)
    8000223c:	fca6                	sd	s1,120(sp)
    8000223e:	f8ca                	sd	s2,112(sp)
    80002240:	f4ce                	sd	s3,104(sp)
    80002242:	f0d2                	sd	s4,96(sp)
    80002244:	ecd6                	sd	s5,88(sp)
    80002246:	e8da                	sd	s6,80(sp)
    80002248:	e4de                	sd	s7,72(sp)
    8000224a:	e0e2                	sd	s8,64(sp)
    8000224c:	fc66                	sd	s9,56(sp)
    8000224e:	f86a                	sd	s10,48(sp)
    80002250:	f46e                	sd	s11,40(sp)
    80002252:	8a2a                	mv	s4,a0
    80002254:	8aae                	mv	s5,a1
    80002256:	8932                	mv	s2,a2
    80002258:	e836                	sd	a3,16(sp)
    8000225a:	0006bd03          	ld	s10,0(a3)
    8000225e:	02200793          	li	a5,34
    80002262:	00f60223          	sb	a5,4(a2)
    80002266:	47a1                	li	a5,8
    80002268:	00f602a3          	sb	a5,5(a2)
    8000226c:	00060323          	sb	zero,6(a2)
    80002270:	000603a3          	sb	zero,7(a2)
    80002274:	451c                	lw	a5,8(a0)
    80002276:	c61c                	sw	a5,8(a2)
    80002278:	455c                	lw	a5,12(a0)
    8000227a:	c65c                	sw	a5,12(a2)
    8000227c:	4d85                	li	s11,1
    8000227e:	00860793          	addi	a5,a2,8
    80002282:	ec3e                	sd	a5,24(sp)
    80002284:	4c45                	li	s8,17
    80002286:	02050793          	addi	a5,a0,32
    8000228a:	e43e                	sd	a5,8(sp)
    8000228c:	00004597          	auipc	a1,0x4
    80002290:	dbc58593          	addi	a1,a1,-580 # 80006048 <rtable.0+0x1b0>
    80002294:	856a                	mv	a0,s10
    80002296:	26b030ef          	jal	80005d00 <strspn>
    8000229a:	00ad0cb3          	add	s9,s10,a0
    8000229e:	00004597          	auipc	a1,0x4
    800022a2:	daa58593          	addi	a1,a1,-598 # 80006048 <rtable.0+0x1b0>
    800022a6:	8566                	mv	a0,s9
    800022a8:	16b030ef          	jal	80005c12 <strcspn>
    800022ac:	8baa                	mv	s7,a0
    800022ae:	01b50b63          	beq	a0,s11,800022c4 <lfs_dir_find+0x8e>
    800022b2:	4789                	li	a5,2
    800022b4:	00f50f63          	beq	a0,a5,800022d2 <lfs_dir_find+0x9c>
    800022b8:	017c8d33          	add	s10,s9,s7
    800022bc:	84ea                	mv	s1,s10
    800022be:	89ee                	mv	s3,s11
    800022c0:	4b09                	li	s6,2
    800022c2:	a035                	j	800022ee <lfs_dir_find+0xb8>
    800022c4:	000cc703          	lbu	a4,0(s9)
    800022c8:	02e00793          	li	a5,46
    800022cc:	fef716e3          	bne	a4,a5,800022b8 <lfs_dir_find+0x82>
    800022d0:	a811                	j	800022e4 <lfs_dir_find+0xae>
    800022d2:	4609                	li	a2,2
    800022d4:	00004597          	auipc	a1,0x4
    800022d8:	d7c58593          	addi	a1,a1,-644 # 80006050 <rtable.0+0x1b8>
    800022dc:	8566                	mv	a0,s9
    800022de:	6d0030ef          	jal	800059ae <memcmp>
    800022e2:	f979                	bnez	a0,800022b8 <lfs_dir_find+0x82>
    800022e4:	017c8d33          	add	s10,s9,s7
    800022e8:	b755                	j	8000228c <lfs_dir_find+0x56>
    800022ea:	2985                	addiw	s3,s3,1
    800022ec:	94a2                	add	s1,s1,s0
    800022ee:	00004597          	auipc	a1,0x4
    800022f2:	d5a58593          	addi	a1,a1,-678 # 80006048 <rtable.0+0x1b0>
    800022f6:	8526                	mv	a0,s1
    800022f8:	209030ef          	jal	80005d00 <strspn>
    800022fc:	94aa                	add	s1,s1,a0
    800022fe:	00004597          	auipc	a1,0x4
    80002302:	d4a58593          	addi	a1,a1,-694 # 80006048 <rtable.0+0x1b0>
    80002306:	8526                	mv	a0,s1
    80002308:	10b030ef          	jal	80005c12 <strcspn>
    8000230c:	842a                	mv	s0,a0
    8000230e:	c115                	beqz	a0,80002332 <lfs_dir_find+0xfc>
    80002310:	fd651de3          	bne	a0,s6,800022ea <lfs_dir_find+0xb4>
    80002314:	865a                	mv	a2,s6
    80002316:	00004597          	auipc	a1,0x4
    8000231a:	d3a58593          	addi	a1,a1,-710 # 80006050 <rtable.0+0x1b8>
    8000231e:	8526                	mv	a0,s1
    80002320:	68e030ef          	jal	800059ae <memcmp>
    80002324:	f179                	bnez	a0,800022ea <lfs_dir_find+0xb4>
    80002326:	39fd                	addiw	s3,s3,-1
    80002328:	fc0992e3          	bnez	s3,800022ec <lfs_dir_find+0xb6>
    8000232c:	00248d13          	addi	s10,s1,2
    80002330:	bfb1                	j	8000228c <lfs_dir_find+0x56>
    80002332:	000cc783          	lbu	a5,0(s9)
    80002336:	c7cd                	beqz	a5,800023e0 <lfs_dir_find+0x1aa>
    80002338:	67c2                	ld	a5,16(sp)
    8000233a:	0197b023          	sd	s9,0(a5)
    8000233e:	00494703          	lbu	a4,4(s2)
    80002342:	02200793          	li	a5,34
    80002346:	0af71d63          	bne	a4,a5,80002400 <lfs_dir_find+0x1ca>
    8000234a:	6662                	ld	a2,24(sp)
    8000234c:	85d6                	mv	a1,s5
    8000234e:	8552                	mv	a0,s4
    80002350:	98fff0ef          	jal	80001cde <lfs_dir_fetch>
    80002354:	e559                	bnez	a0,800023e2 <lfs_dir_find+0x1ac>
    80002356:	000b849b          	sext.w	s1,s7
    8000235a:	02200413          	li	s0,34
    8000235e:	a029                	j	80002368 <lfs_dir_find+0x132>
    80002360:	00794783          	lbu	a5,7(s2)
    80002364:	03778163          	beq	a5,s7,80002386 <lfs_dir_find+0x150>
    80002368:	864a                	mv	a2,s2
    8000236a:	85d6                	mv	a1,s5
    8000236c:	8552                	mv	a0,s4
    8000236e:	ae1ff0ef          	jal	80001e4e <lfs_dir_next>
    80002372:	e925                	bnez	a0,800023e2 <lfs_dir_find+0x1ac>
    80002374:	00494783          	lbu	a5,4(s2)
    80002378:	07f7f793          	andi	a5,a5,127
    8000237c:	ff8782e3          	beq	a5,s8,80002360 <lfs_dir_find+0x12a>
    80002380:	fe8780e3          	beq	a5,s0,80002360 <lfs_dir_find+0x12a>
    80002384:	b7d5                	j	80002368 <lfs_dir_find+0x132>
    80002386:	00092703          	lw	a4,0(s2)
    8000238a:	2711                	addiw	a4,a4,4
    8000238c:	00594783          	lbu	a5,5(s2)
    80002390:	9f3d                	addw	a4,a4,a5
    80002392:	00694683          	lbu	a3,6(s2)
    80002396:	8826                	mv	a6,s1
    80002398:	87e6                	mv	a5,s9
    8000239a:	9f35                	addw	a4,a4,a3
    8000239c:	008aa683          	lw	a3,8(s5)
    800023a0:	4601                	li	a2,0
    800023a2:	65a2                	ld	a1,8(sp)
    800023a4:	8552                	mv	a0,s4
    800023a6:	e1fff0ef          	jal	800021c4 <lfs_cache_cmp>
    800023aa:	02054c63          	bltz	a0,800023e2 <lfs_dir_find+0x1ac>
    800023ae:	dd4d                	beqz	a0,80002368 <lfs_dir_find+0x132>
    800023b0:	059a4783          	lbu	a5,89(s4) # ffffffff80000059 <_sp+0xfffffffef1000059>
    800023b4:	ec079ce3          	bnez	a5,8000228c <lfs_dir_find+0x56>
    800023b8:	00490783          	lb	a5,4(s2)
    800023bc:	ec07d8e3          	bgez	a5,8000228c <lfs_dir_find+0x56>
    800023c0:	65e2                	ld	a1,24(sp)
    800023c2:	8552                	mv	a0,s4
    800023c4:	b79ff0ef          	jal	80001f3c <lfs_moved>
    800023c8:	e901                	bnez	a0,800023d8 <lfs_dir_find+0x1a2>
    800023ca:	00494783          	lbu	a5,4(s2)
    800023ce:	07f7f793          	andi	a5,a5,127
    800023d2:	00f90223          	sb	a5,4(s2)
    800023d6:	bd5d                	j	8000228c <lfs_dir_find+0x56>
    800023d8:	00054563          	bltz	a0,800023e2 <lfs_dir_find+0x1ac>
    800023dc:	5579                	li	a0,-2
    800023de:	a011                	j	800023e2 <lfs_dir_find+0x1ac>
    800023e0:	4501                	li	a0,0
    800023e2:	60aa                	ld	ra,136(sp)
    800023e4:	640a                	ld	s0,128(sp)
    800023e6:	74e6                	ld	s1,120(sp)
    800023e8:	7946                	ld	s2,112(sp)
    800023ea:	79a6                	ld	s3,104(sp)
    800023ec:	7a06                	ld	s4,96(sp)
    800023ee:	6ae6                	ld	s5,88(sp)
    800023f0:	6b46                	ld	s6,80(sp)
    800023f2:	6ba6                	ld	s7,72(sp)
    800023f4:	6c06                	ld	s8,64(sp)
    800023f6:	7ce2                	ld	s9,56(sp)
    800023f8:	7d42                	ld	s10,48(sp)
    800023fa:	7da2                	ld	s11,40(sp)
    800023fc:	6149                	addi	sp,sp,144
    800023fe:	8082                	ret
    80002400:	5531                	li	a0,-20
    80002402:	b7c5                	j	800023e2 <lfs_dir_find+0x1ac>

0000000080002404 <lfs_deinit>:
    80002404:	1141                	addi	sp,sp,-16
    80002406:	e406                	sd	ra,8(sp)
    80002408:	e022                	sd	s0,0(sp)
    8000240a:	842a                	mv	s0,a0
    8000240c:	611c                	ld	a5,0(a0)
    8000240e:	63bc                	ld	a5,64(a5)
    80002410:	cb99                	beqz	a5,80002426 <lfs_deinit+0x22>
    80002412:	601c                	ld	a5,0(s0)
    80002414:	67bc                	ld	a5,72(a5)
    80002416:	cf81                	beqz	a5,8000242e <lfs_deinit+0x2a>
    80002418:	601c                	ld	a5,0(s0)
    8000241a:	6bbc                	ld	a5,80(a5)
    8000241c:	cf89                	beqz	a5,80002436 <lfs_deinit+0x32>
    8000241e:	60a2                	ld	ra,8(sp)
    80002420:	6402                	ld	s0,0(sp)
    80002422:	0141                	addi	sp,sp,16
    80002424:	8082                	ret
    80002426:	7508                	ld	a0,40(a0)
    80002428:	578030ef          	jal	800059a0 <free>
    8000242c:	b7dd                	j	80002412 <lfs_deinit+0xe>
    8000242e:	7c08                	ld	a0,56(s0)
    80002430:	570030ef          	jal	800059a0 <free>
    80002434:	b7d5                	j	80002418 <lfs_deinit+0x14>
    80002436:	6828                	ld	a0,80(s0)
    80002438:	568030ef          	jal	800059a0 <free>
    8000243c:	b7cd                	j	8000241e <lfs_deinit+0x1a>

000000008000243e <lfs_ctz_index>:
    8000243e:	0005a803          	lw	a6,0(a1)
    80002442:	611c                	ld	a5,0(a0)
    80002444:	5b98                	lw	a4,48(a5)
    80002446:	3761                	addiw	a4,a4,-8
    80002448:	0007079b          	sext.w	a5,a4
    8000244c:	0af86563          	bltu	a6,a5,800024f6 <lfs_ctz_index+0xb8>
    80002450:	02e857bb          	divuw	a5,a6,a4
    80002454:	37fd                	addiw	a5,a5,-1
    80002456:	0017d69b          	srliw	a3,a5,0x1
    8000245a:	55555337          	lui	t1,0x55555
    8000245e:	55530313          	addi	t1,t1,1365 # 55555555 <_ftext-0x2aaaaaab>
    80002462:	0066f6b3          	and	a3,a3,t1
    80002466:	9f95                	subw	a5,a5,a3
    80002468:	333336b7          	lui	a3,0x33333
    8000246c:	33368693          	addi	a3,a3,819 # 33333333 <_ftext-0x4ccccccd>
    80002470:	00f6f633          	and	a2,a3,a5
    80002474:	0027d79b          	srliw	a5,a5,0x2
    80002478:	8ff5                	and	a5,a5,a3
    8000247a:	9fb1                	addw	a5,a5,a2
    8000247c:	0047d61b          	srliw	a2,a5,0x4
    80002480:	9e3d                	addw	a2,a2,a5
    80002482:	0f0f18b7          	lui	a7,0xf0f1
    80002486:	f0f88893          	addi	a7,a7,-241 # f0f0f0f <_ftext-0x70f0f0f1>
    8000248a:	01167633          	and	a2,a2,a7
    8000248e:	0086179b          	slliw	a5,a2,0x8
    80002492:	9fb1                	addw	a5,a5,a2
    80002494:	0107961b          	slliw	a2,a5,0x10
    80002498:	00c7853b          	addw	a0,a5,a2
    8000249c:	0185551b          	srliw	a0,a0,0x18
    800024a0:	2509                	addiw	a0,a0,2
    800024a2:	0025151b          	slliw	a0,a0,0x2
    800024a6:	40a8053b          	subw	a0,a6,a0
    800024aa:	02e5553b          	divuw	a0,a0,a4
    800024ae:	0015561b          	srliw	a2,a0,0x1
    800024b2:	00667633          	and	a2,a2,t1
    800024b6:	40c5063b          	subw	a2,a0,a2
    800024ba:	00c6f7b3          	and	a5,a3,a2
    800024be:	0026561b          	srliw	a2,a2,0x2
    800024c2:	8ef1                	and	a3,a3,a2
    800024c4:	9fb5                	addw	a5,a5,a3
    800024c6:	02a7073b          	mulw	a4,a4,a0
    800024ca:	40e8073b          	subw	a4,a6,a4
    800024ce:	0047d69b          	srliw	a3,a5,0x4
    800024d2:	9ebd                	addw	a3,a3,a5
    800024d4:	0116f6b3          	and	a3,a3,a7
    800024d8:	0086979b          	slliw	a5,a3,0x8
    800024dc:	9fb5                	addw	a5,a5,a3
    800024de:	0107969b          	slliw	a3,a5,0x10
    800024e2:	9fb5                	addw	a5,a5,a3
    800024e4:	0187d79b          	srliw	a5,a5,0x18
    800024e8:	0027979b          	slliw	a5,a5,0x2
    800024ec:	40f707bb          	subw	a5,a4,a5
    800024f0:	c19c                	sw	a5,0(a1)
    800024f2:	2501                	sext.w	a0,a0
    800024f4:	8082                	ret
    800024f6:	4501                	li	a0,0
    800024f8:	8082                	ret

00000000800024fa <lfs_ctz_traverse>:
    800024fa:	e319                	bnez	a4,80002500 <lfs_ctz_traverse+0x6>
    800024fc:	4501                	li	a0,0
    800024fe:	8082                	ret
    80002500:	711d                	addi	sp,sp,-96
    80002502:	ec86                	sd	ra,88(sp)
    80002504:	e8a2                	sd	s0,80(sp)
    80002506:	e4a6                	sd	s1,72(sp)
    80002508:	e0ca                	sd	s2,64(sp)
    8000250a:	fc4e                	sd	s3,56(sp)
    8000250c:	f852                	sd	s4,48(sp)
    8000250e:	f456                	sd	s5,40(sp)
    80002510:	f05a                	sd	s6,32(sp)
    80002512:	ec5e                	sd	s7,24(sp)
    80002514:	e862                	sd	s8,16(sp)
    80002516:	89aa                	mv	s3,a0
    80002518:	8a2e                	mv	s4,a1
    8000251a:	8ab2                	mv	s5,a2
    8000251c:	8c36                	mv	s8,a3
    8000251e:	843e                	mv	s0,a5
    80002520:	84c2                	mv	s1,a6
    80002522:	377d                	addiw	a4,a4,-1
    80002524:	c63a                	sw	a4,12(sp)
    80002526:	006c                	addi	a1,sp,12
    80002528:	f17ff0ef          	jal	8000243e <lfs_ctz_index>
    8000252c:	0005091b          	sext.w	s2,a0
    80002530:	4b89                	li	s7,2
    80002532:	85e2                	mv	a1,s8
    80002534:	8526                	mv	a0,s1
    80002536:	9402                	jalr	s0
    80002538:	e555                	bnez	a0,800025e4 <lfs_ctz_traverse+0xea>
    8000253a:	0a090563          	beqz	s2,800025e4 <lfs_ctz_traverse+0xea>
    8000253e:	00197b13          	andi	s6,s2,1
    80002542:	416b883b          	subw	a6,s7,s6
    80002546:	0028181b          	slliw	a6,a6,0x2
    8000254a:	878a                	mv	a5,sp
    8000254c:	4701                	li	a4,0
    8000254e:	86e2                	mv	a3,s8
    80002550:	8656                	mv	a2,s5
    80002552:	85d2                	mv	a1,s4
    80002554:	854e                	mv	a0,s3
    80002556:	e0aff0ef          	jal	80001b60 <lfs_cache_read>
    8000255a:	4782                	lw	a5,0(sp)
    8000255c:	0087d713          	srli	a4,a5,0x8
    80002560:	0ff77713          	zext.b	a4,a4
    80002564:	0087171b          	slliw	a4,a4,0x8
    80002568:	0107d693          	srli	a3,a5,0x10
    8000256c:	0ff6f693          	zext.b	a3,a3
    80002570:	0106969b          	slliw	a3,a3,0x10
    80002574:	8f55                	or	a4,a4,a3
    80002576:	0ff7f693          	zext.b	a3,a5
    8000257a:	8f55                	or	a4,a4,a3
    8000257c:	0187d79b          	srliw	a5,a5,0x18
    80002580:	0187979b          	slliw	a5,a5,0x18
    80002584:	8f5d                	or	a4,a4,a5
    80002586:	0007059b          	sext.w	a1,a4
    8000258a:	c02e                	sw	a1,0(sp)
    8000258c:	4712                	lw	a4,4(sp)
    8000258e:	00875793          	srli	a5,a4,0x8
    80002592:	0ff7f793          	zext.b	a5,a5
    80002596:	0087979b          	slliw	a5,a5,0x8
    8000259a:	01075693          	srli	a3,a4,0x10
    8000259e:	0ff6f693          	zext.b	a3,a3
    800025a2:	0106969b          	slliw	a3,a3,0x10
    800025a6:	8fd5                	or	a5,a5,a3
    800025a8:	0ff77693          	zext.b	a3,a4
    800025ac:	8fd5                	or	a5,a5,a3
    800025ae:	0187571b          	srliw	a4,a4,0x18
    800025b2:	0187171b          	slliw	a4,a4,0x18
    800025b6:	8fd9                	or	a5,a5,a4
    800025b8:	c23e                	sw	a5,4(sp)
    800025ba:	e50d                	bnez	a0,800025e4 <lfs_ctz_traverse+0xea>
    800025bc:	fff94c13          	not	s8,s2
    800025c0:	001c7c13          	andi	s8,s8,1
    800025c4:	01805563          	blez	s8,800025ce <lfs_ctz_traverse+0xd4>
    800025c8:	8526                	mv	a0,s1
    800025ca:	9402                	jalr	s0
    800025cc:	ed01                	bnez	a0,800025e4 <lfs_ctz_traverse+0xea>
    800025ce:	0c0a                	slli	s8,s8,0x2
    800025d0:	010c0793          	addi	a5,s8,16
    800025d4:	00278c33          	add	s8,a5,sp
    800025d8:	ff0c2c03          	lw	s8,-16(s8)
    800025dc:	3979                	addiw	s2,s2,-2
    800025de:	0169093b          	addw	s2,s2,s6
    800025e2:	bf81                	j	80002532 <lfs_ctz_traverse+0x38>
    800025e4:	60e6                	ld	ra,88(sp)
    800025e6:	6446                	ld	s0,80(sp)
    800025e8:	64a6                	ld	s1,72(sp)
    800025ea:	6906                	ld	s2,64(sp)
    800025ec:	79e2                	ld	s3,56(sp)
    800025ee:	7a42                	ld	s4,48(sp)
    800025f0:	7aa2                	ld	s5,40(sp)
    800025f2:	7b02                	ld	s6,32(sp)
    800025f4:	6be2                	ld	s7,24(sp)
    800025f6:	6c42                	ld	s8,16(sp)
    800025f8:	6125                	addi	sp,sp,96
    800025fa:	8082                	ret

00000000800025fc <lfs_init>:
    800025fc:	1101                	addi	sp,sp,-32
    800025fe:	ec06                	sd	ra,24(sp)
    80002600:	e822                	sd	s0,16(sp)
    80002602:	e426                	sd	s1,8(sp)
    80002604:	842a                	mv	s0,a0
    80002606:	84ae                	mv	s1,a1
    80002608:	e10c                	sd	a1,0(a0)
    8000260a:	61bc                	ld	a5,64(a1)
    8000260c:	c7a1                	beqz	a5,80002654 <lfs_init+0x58>
    8000260e:	f51c                	sd	a5,40(a0)
    80002610:	64bc                	ld	a5,72(s1)
    80002612:	cfa1                	beqz	a5,8000266a <lfs_init+0x6e>
    80002614:	fc1c                	sd	a5,56(s0)
    80002616:	02c4e603          	lwu	a2,44(s1)
    8000261a:	0ff00593          	li	a1,255
    8000261e:	7c08                	ld	a0,56(s0)
    80002620:	902ff0ef          	jal	80001722 <memset>
    80002624:	57fd                	li	a5,-1
    80002626:	d81c                	sw	a5,48(s0)
    80002628:	d01c                	sw	a5,32(s0)
    8000262a:	6018                	ld	a4,0(s0)
    8000262c:	6b3c                	ld	a5,80(a4)
    8000262e:	c7a9                	beqz	a5,80002678 <lfs_init+0x7c>
    80002630:	e83c                	sd	a5,80(s0)
    80002632:	57fd                	li	a5,-1
    80002634:	c41c                	sw	a5,8(s0)
    80002636:	c45c                	sw	a5,12(s0)
    80002638:	00043823          	sd	zero,16(s0)
    8000263c:	00043c23          	sd	zero,24(s0)
    80002640:	04040c23          	sb	zero,88(s0)
    80002644:	04040ca3          	sb	zero,89(s0)
    80002648:	4501                	li	a0,0
    8000264a:	60e2                	ld	ra,24(sp)
    8000264c:	6442                	ld	s0,16(sp)
    8000264e:	64a2                	ld	s1,8(sp)
    80002650:	6105                	addi	sp,sp,32
    80002652:	8082                	ret
    80002654:	0285e503          	lwu	a0,40(a1)
    80002658:	33a030ef          	jal	80005992 <malloc>
    8000265c:	f408                	sd	a0,40(s0)
    8000265e:	f94d                	bnez	a0,80002610 <lfs_init+0x14>
    80002660:	8522                	mv	a0,s0
    80002662:	da3ff0ef          	jal	80002404 <lfs_deinit>
    80002666:	5551                	li	a0,-12
    80002668:	b7cd                	j	8000264a <lfs_init+0x4e>
    8000266a:	02c4e503          	lwu	a0,44(s1)
    8000266e:	324030ef          	jal	80005992 <malloc>
    80002672:	fc08                	sd	a0,56(s0)
    80002674:	f14d                	bnez	a0,80002616 <lfs_init+0x1a>
    80002676:	b7ed                	j	80002660 <lfs_init+0x64>
    80002678:	5f08                	lw	a0,56(a4)
    8000267a:	0035551b          	srliw	a0,a0,0x3
    8000267e:	314030ef          	jal	80005992 <malloc>
    80002682:	e828                	sd	a0,80(s0)
    80002684:	f55d                	bnez	a0,80002632 <lfs_init+0x36>
    80002686:	bfe9                	j	80002660 <lfs_init+0x64>

0000000080002688 <lfs_ctz_find>:
    80002688:	7175                	addi	sp,sp,-144
    8000268a:	e506                	sd	ra,136(sp)
    8000268c:	f86a                	sd	s10,48(sp)
    8000268e:	f46e                	sd	s11,40(sp)
    80002690:	e02a                	sd	a0,0(sp)
    80002692:	8dc2                	mv	s11,a6
    80002694:	8d46                	mv	s10,a7
    80002696:	c636                	sw	a3,12(sp)
    80002698:	c43e                	sw	a5,8(sp)
    8000269a:	ef01                	bnez	a4,800026b2 <lfs_ctz_find+0x2a>
    8000269c:	57fd                	li	a5,-1
    8000269e:	00f82023          	sw	a5,0(a6)
    800026a2:	0008a023          	sw	zero,0(a7)
    800026a6:	4501                	li	a0,0
    800026a8:	60aa                	ld	ra,136(sp)
    800026aa:	7d42                	ld	s10,48(sp)
    800026ac:	7da2                	ld	s11,40(sp)
    800026ae:	6149                	addi	sp,sp,144
    800026b0:	8082                	ret
    800026b2:	e122                	sd	s0,128(sp)
    800026b4:	fca6                	sd	s1,120(sp)
    800026b6:	f8ca                	sd	s2,112(sp)
    800026b8:	e4de                	sd	s7,72(sp)
    800026ba:	e0e2                	sd	s8,64(sp)
    800026bc:	8bae                	mv	s7,a1
    800026be:	8c32                	mv	s8,a2
    800026c0:	377d                	addiw	a4,a4,-1
    800026c2:	ce3a                	sw	a4,28(sp)
    800026c4:	086c                	addi	a1,sp,28
    800026c6:	6482                	ld	s1,0(sp)
    800026c8:	8526                	mv	a0,s1
    800026ca:	d75ff0ef          	jal	8000243e <lfs_ctz_index>
    800026ce:	0005041b          	sext.w	s0,a0
    800026d2:	002c                	addi	a1,sp,8
    800026d4:	8526                	mv	a0,s1
    800026d6:	d69ff0ef          	jal	8000243e <lfs_ctz_index>
    800026da:	0005091b          	sext.w	s2,a0
    800026de:	12897b63          	bgeu	s2,s0,80002814 <lfs_ctz_find+0x18c>
    800026e2:	f4ce                	sd	s3,104(sp)
    800026e4:	f0d2                	sd	s4,96(sp)
    800026e6:	ecd6                	sd	s5,88(sp)
    800026e8:	e8da                	sd	s6,80(sp)
    800026ea:	fc66                	sd	s9,56(sp)
    800026ec:	69c1                	lui	s3,0x10
    800026ee:	19fd                	addi	s3,s3,-1 # ffff <_ftext-0x7fff0001>
    800026f0:	0ff00b13          	li	s6,255
    800026f4:	4abd                	li	s5,15
    800026f6:	4a0d                	li	s4,3
    800026f8:	4c85                	li	s9,1
    800026fa:	a891                	j	8000274e <lfs_ctz_find+0xc6>
    800026fc:	0007049b          	sext.w	s1,a4
    80002700:	4811                	li	a6,4
    80002702:	007c                	addi	a5,sp,12
    80002704:	0027171b          	slliw	a4,a4,0x2
    80002708:	46b2                	lw	a3,12(sp)
    8000270a:	8662                	mv	a2,s8
    8000270c:	85de                	mv	a1,s7
    8000270e:	6502                	ld	a0,0(sp)
    80002710:	c50ff0ef          	jal	80001b60 <lfs_cache_read>
    80002714:	4732                	lw	a4,12(sp)
    80002716:	00875793          	srli	a5,a4,0x8
    8000271a:	0ff7f793          	zext.b	a5,a5
    8000271e:	0087979b          	slliw	a5,a5,0x8
    80002722:	01075693          	srli	a3,a4,0x10
    80002726:	0ff6f693          	zext.b	a3,a3
    8000272a:	0106969b          	slliw	a3,a3,0x10
    8000272e:	8fd5                	or	a5,a5,a3
    80002730:	0ff77693          	zext.b	a3,a4
    80002734:	8fd5                	or	a5,a5,a3
    80002736:	0187571b          	srliw	a4,a4,0x18
    8000273a:	0187171b          	slliw	a4,a4,0x18
    8000273e:	8fd9                	or	a5,a5,a4
    80002740:	c63e                	sw	a5,12(sp)
    80002742:	e575                	bnez	a0,8000282e <lfs_ctz_find+0x1a6>
    80002744:	009c94bb          	sllw	s1,s9,s1
    80002748:	9c05                	subw	s0,s0,s1
    8000274a:	0c897063          	bgeu	s2,s0,8000280a <lfs_ctz_find+0x182>
    8000274e:	4124063b          	subw	a2,s0,s2
    80002752:	0006069b          	sext.w	a3,a2
    80002756:	00d9b6b3          	sltu	a3,s3,a3
    8000275a:	0046969b          	slliw	a3,a3,0x4
    8000275e:	00d6563b          	srlw	a2,a2,a3
    80002762:	0006079b          	sext.w	a5,a2
    80002766:	00fb37b3          	sltu	a5,s6,a5
    8000276a:	0037979b          	slliw	a5,a5,0x3
    8000276e:	00f6563b          	srlw	a2,a2,a5
    80002772:	0006071b          	sext.w	a4,a2
    80002776:	8fd5                	or	a5,a5,a3
    80002778:	2781                	sext.w	a5,a5
    8000277a:	00eab733          	sltu	a4,s5,a4
    8000277e:	0027171b          	slliw	a4,a4,0x2
    80002782:	00e6563b          	srlw	a2,a2,a4
    80002786:	0006059b          	sext.w	a1,a2
    8000278a:	8fd9                	or	a5,a5,a4
    8000278c:	0007869b          	sext.w	a3,a5
    80002790:	00ba35b3          	sltu	a1,s4,a1
    80002794:	0015959b          	slliw	a1,a1,0x1
    80002798:	408007bb          	negw	a5,s0
    8000279c:	8fe1                	and	a5,a5,s0
    8000279e:	2781                	sext.w	a5,a5
    800027a0:	00f9b533          	sltu	a0,s3,a5
    800027a4:	0045151b          	slliw	a0,a0,0x4
    800027a8:	00a7d7bb          	srlw	a5,a5,a0
    800027ac:	0007871b          	sext.w	a4,a5
    800027b0:	00eb3733          	sltu	a4,s6,a4
    800027b4:	0037171b          	slliw	a4,a4,0x3
    800027b8:	00e7d7bb          	srlw	a5,a5,a4
    800027bc:	0007881b          	sext.w	a6,a5
    800027c0:	8f49                	or	a4,a4,a0
    800027c2:	2701                	sext.w	a4,a4
    800027c4:	010ab833          	sltu	a6,s5,a6
    800027c8:	0028181b          	slliw	a6,a6,0x2
    800027cc:	0107d7bb          	srlw	a5,a5,a6
    800027d0:	0007851b          	sext.w	a0,a5
    800027d4:	01076733          	or	a4,a4,a6
    800027d8:	2701                	sext.w	a4,a4
    800027da:	00aa3533          	sltu	a0,s4,a0
    800027de:	0015151b          	slliw	a0,a0,0x1
    800027e2:	00b6563b          	srlw	a2,a2,a1
    800027e6:	0016561b          	srliw	a2,a2,0x1
    800027ea:	8ecd                	or	a3,a3,a1
    800027ec:	8ed1                	or	a3,a3,a2
    800027ee:	00a7d7bb          	srlw	a5,a5,a0
    800027f2:	0017d79b          	srliw	a5,a5,0x1
    800027f6:	8f49                	or	a4,a4,a0
    800027f8:	8fd9                	or	a5,a5,a4
    800027fa:	8736                	mv	a4,a3
    800027fc:	2681                	sext.w	a3,a3
    800027fe:	0007861b          	sext.w	a2,a5
    80002802:	eed67de3          	bgeu	a2,a3,800026fc <lfs_ctz_find+0x74>
    80002806:	873e                	mv	a4,a5
    80002808:	bdd5                	j	800026fc <lfs_ctz_find+0x74>
    8000280a:	79a6                	ld	s3,104(sp)
    8000280c:	7a06                	ld	s4,96(sp)
    8000280e:	6ae6                	ld	s5,88(sp)
    80002810:	6b46                	ld	s6,80(sp)
    80002812:	7ce2                	ld	s9,56(sp)
    80002814:	47b2                	lw	a5,12(sp)
    80002816:	00fda023          	sw	a5,0(s11)
    8000281a:	47a2                	lw	a5,8(sp)
    8000281c:	00fd2023          	sw	a5,0(s10)
    80002820:	4501                	li	a0,0
    80002822:	640a                	ld	s0,128(sp)
    80002824:	74e6                	ld	s1,120(sp)
    80002826:	7946                	ld	s2,112(sp)
    80002828:	6ba6                	ld	s7,72(sp)
    8000282a:	6c06                	ld	s8,64(sp)
    8000282c:	bdb5                	j	800026a8 <lfs_ctz_find+0x20>
    8000282e:	640a                	ld	s0,128(sp)
    80002830:	74e6                	ld	s1,120(sp)
    80002832:	7946                	ld	s2,112(sp)
    80002834:	79a6                	ld	s3,104(sp)
    80002836:	7a06                	ld	s4,96(sp)
    80002838:	6ae6                	ld	s5,88(sp)
    8000283a:	6b46                	ld	s6,80(sp)
    8000283c:	6ba6                	ld	s7,72(sp)
    8000283e:	6c06                	ld	s8,64(sp)
    80002840:	7ce2                	ld	s9,56(sp)
    80002842:	b59d                	j	800026a8 <lfs_ctz_find+0x20>

0000000080002844 <lfs_cache_flush>:
    80002844:	7179                	addi	sp,sp,-48
    80002846:	f406                	sd	ra,40(sp)
    80002848:	f022                	sd	s0,32(sp)
    8000284a:	ec26                	sd	s1,24(sp)
    8000284c:	842e                	mv	s0,a1
    8000284e:	418c                	lw	a1,0(a1)
    80002850:	57fd                	li	a5,-1
    80002852:	06f58263          	beq	a1,a5,800028b6 <lfs_cache_flush+0x72>
    80002856:	e84a                	sd	s2,16(sp)
    80002858:	e44e                	sd	s3,8(sp)
    8000285a:	89aa                	mv	s3,a0
    8000285c:	8932                	mv	s2,a2
    8000285e:	6108                	ld	a0,0(a0)
    80002860:	691c                	ld	a5,16(a0)
    80002862:	5558                	lw	a4,44(a0)
    80002864:	6414                	ld	a3,8(s0)
    80002866:	4050                	lw	a2,4(s0)
    80002868:	9782                	jalr	a5
    8000286a:	84aa                	mv	s1,a0
    8000286c:	e125                	bnez	a0,800028cc <lfs_cache_flush+0x88>
    8000286e:	02090163          	beqz	s2,80002890 <lfs_cache_flush+0x4c>
    80002872:	0009b783          	ld	a5,0(s3)
    80002876:	02c7a803          	lw	a6,44(a5)
    8000287a:	641c                	ld	a5,8(s0)
    8000287c:	4058                	lw	a4,4(s0)
    8000287e:	4014                	lw	a3,0(s0)
    80002880:	4601                	li	a2,0
    80002882:	85ca                	mv	a1,s2
    80002884:	854e                	mv	a0,s3
    80002886:	93fff0ef          	jal	800021c4 <lfs_cache_cmp>
    8000288a:	02054863          	bltz	a0,800028ba <lfs_cache_flush+0x76>
    8000288e:	c915                	beqz	a0,800028c2 <lfs_cache_flush+0x7e>
    80002890:	0009b783          	ld	a5,0(s3)
    80002894:	02c7e603          	lwu	a2,44(a5)
    80002898:	0ff00593          	li	a1,255
    8000289c:	6408                	ld	a0,8(s0)
    8000289e:	e85fe0ef          	jal	80001722 <memset>
    800028a2:	57fd                	li	a5,-1
    800028a4:	c01c                	sw	a5,0(s0)
    800028a6:	6942                	ld	s2,16(sp)
    800028a8:	69a2                	ld	s3,8(sp)
    800028aa:	8526                	mv	a0,s1
    800028ac:	70a2                	ld	ra,40(sp)
    800028ae:	7402                	ld	s0,32(sp)
    800028b0:	64e2                	ld	s1,24(sp)
    800028b2:	6145                	addi	sp,sp,48
    800028b4:	8082                	ret
    800028b6:	4481                	li	s1,0
    800028b8:	bfcd                	j	800028aa <lfs_cache_flush+0x66>
    800028ba:	84aa                	mv	s1,a0
    800028bc:	6942                	ld	s2,16(sp)
    800028be:	69a2                	ld	s3,8(sp)
    800028c0:	b7ed                	j	800028aa <lfs_cache_flush+0x66>
    800028c2:	fcc00493          	li	s1,-52
    800028c6:	6942                	ld	s2,16(sp)
    800028c8:	69a2                	ld	s3,8(sp)
    800028ca:	b7c5                	j	800028aa <lfs_cache_flush+0x66>
    800028cc:	6942                	ld	s2,16(sp)
    800028ce:	69a2                	ld	s3,8(sp)
    800028d0:	bfe9                	j	800028aa <lfs_cache_flush+0x66>

00000000800028d2 <lfs_cache_prog>:
    800028d2:	715d                	addi	sp,sp,-80
    800028d4:	e486                	sd	ra,72(sp)
    800028d6:	e0a2                	sd	s0,64(sp)
    800028d8:	fc26                	sd	s1,56(sp)
    800028da:	f84a                	sd	s2,48(sp)
    800028dc:	f44e                	sd	s3,40(sp)
    800028de:	f052                	sd	s4,32(sp)
    800028e0:	ec56                	sd	s5,24(sp)
    800028e2:	e85a                	sd	s6,16(sp)
    800028e4:	8a2a                	mv	s4,a0
    800028e6:	892e                	mv	s2,a1
    800028e8:	8b32                	mv	s6,a2
    800028ea:	89b6                	mv	s3,a3
    800028ec:	84ba                	mv	s1,a4
    800028ee:	8abe                	mv	s5,a5
    800028f0:	8442                	mv	s0,a6
    800028f2:	10080663          	beqz	a6,800029fe <lfs_cache_prog+0x12c>
    800028f6:	e45e                	sd	s7,8(sp)
    800028f8:	e062                	sd	s8,0(sp)
    800028fa:	a061                	j	80002982 <lfs_cache_prog+0xb0>
    800028fc:	00492783          	lw	a5,4(s2)
    80002900:	08f4e563          	bltu	s1,a5,8000298a <lfs_cache_prog+0xb8>
    80002904:	000a3703          	ld	a4,0(s4)
    80002908:	5758                	lw	a4,44(a4)
    8000290a:	9f3d                	addw	a4,a4,a5
    8000290c:	0007069b          	sext.w	a3,a4
    80002910:	06d4fd63          	bgeu	s1,a3,8000298a <lfs_cache_prog+0xb8>
    80002914:	9f05                	subw	a4,a4,s1
    80002916:	8bba                	mv	s7,a4
    80002918:	2701                	sext.w	a4,a4
    8000291a:	00e47363          	bgeu	s0,a4,80002920 <lfs_cache_prog+0x4e>
    8000291e:	8ba2                	mv	s7,s0
    80002920:	020b9c13          	slli	s8,s7,0x20
    80002924:	020c5c13          	srli	s8,s8,0x20
    80002928:	40f487bb          	subw	a5,s1,a5
    8000292c:	1782                	slli	a5,a5,0x20
    8000292e:	9381                	srli	a5,a5,0x20
    80002930:	00893503          	ld	a0,8(s2)
    80002934:	8662                	mv	a2,s8
    80002936:	85d6                	mv	a1,s5
    80002938:	953e                	add	a0,a0,a5
    8000293a:	0c8030ef          	jal	80005a02 <memcpy>
    8000293e:	9ae2                	add	s5,s5,s8
    80002940:	009b87bb          	addw	a5,s7,s1
    80002944:	0007849b          	sext.w	s1,a5
    80002948:	4174043b          	subw	s0,s0,s7
    8000294c:	000a3703          	ld	a4,0(s4)
    80002950:	5758                	lw	a4,44(a4)
    80002952:	02e7f7bb          	remuw	a5,a5,a4
    80002956:	e7d1                	bnez	a5,800029e2 <lfs_cache_prog+0x110>
    80002958:	865a                	mv	a2,s6
    8000295a:	85ca                	mv	a1,s2
    8000295c:	8552                	mv	a0,s4
    8000295e:	ee7ff0ef          	jal	80002844 <lfs_cache_flush>
    80002962:	c141                	beqz	a0,800029e2 <lfs_cache_prog+0x110>
    80002964:	6ba2                	ld	s7,8(sp)
    80002966:	6c02                	ld	s8,0(sp)
    80002968:	a049                	j	800029ea <lfs_cache_prog+0x118>
    8000296a:	01392023          	sw	s3,0(s2)
    8000296e:	000a3783          	ld	a5,0(s4)
    80002972:	02c7a883          	lw	a7,44(a5)
    80002976:	0314f8bb          	remuw	a7,s1,a7
    8000297a:	411488bb          	subw	a7,s1,a7
    8000297e:	01192223          	sw	a7,4(s2)
    80002982:	00092783          	lw	a5,0(s2)
    80002986:	f7378be3          	beq	a5,s3,800028fc <lfs_cache_prog+0x2a>
    8000298a:	000a3503          	ld	a0,0(s4)
    8000298e:	02c52883          	lw	a7,44(a0)
    80002992:	0314f7bb          	remuw	a5,s1,a7
    80002996:	fbf1                	bnez	a5,8000296a <lfs_cache_prog+0x98>
    80002998:	fd1469e3          	bltu	s0,a7,8000296a <lfs_cache_prog+0x98>
    8000299c:	031478bb          	remuw	a7,s0,a7
    800029a0:	00088b9b          	sext.w	s7,a7
    800029a4:	4114043b          	subw	s0,s0,a7
    800029a8:	00040c1b          	sext.w	s8,s0
    800029ac:	691c                	ld	a5,16(a0)
    800029ae:	8762                	mv	a4,s8
    800029b0:	86d6                	mv	a3,s5
    800029b2:	8626                	mv	a2,s1
    800029b4:	85ce                	mv	a1,s3
    800029b6:	9782                	jalr	a5
    800029b8:	e931                	bnez	a0,80002a0c <lfs_cache_prog+0x13a>
    800029ba:	000b0e63          	beqz	s6,800029d6 <lfs_cache_prog+0x104>
    800029be:	8862                	mv	a6,s8
    800029c0:	87d6                	mv	a5,s5
    800029c2:	8726                	mv	a4,s1
    800029c4:	86ce                	mv	a3,s3
    800029c6:	4601                	li	a2,0
    800029c8:	85da                	mv	a1,s6
    800029ca:	8552                	mv	a0,s4
    800029cc:	ff8ff0ef          	jal	800021c4 <lfs_cache_cmp>
    800029d0:	04054163          	bltz	a0,80002a12 <lfs_cache_prog+0x140>
    800029d4:	c51d                	beqz	a0,80002a02 <lfs_cache_prog+0x130>
    800029d6:	02041793          	slli	a5,s0,0x20
    800029da:	9381                	srli	a5,a5,0x20
    800029dc:	9abe                	add	s5,s5,a5
    800029de:	9ca1                	addw	s1,s1,s0
    800029e0:	845e                	mv	s0,s7
    800029e2:	f045                	bnez	s0,80002982 <lfs_cache_prog+0xb0>
    800029e4:	4501                	li	a0,0
    800029e6:	6ba2                	ld	s7,8(sp)
    800029e8:	6c02                	ld	s8,0(sp)
    800029ea:	60a6                	ld	ra,72(sp)
    800029ec:	6406                	ld	s0,64(sp)
    800029ee:	74e2                	ld	s1,56(sp)
    800029f0:	7942                	ld	s2,48(sp)
    800029f2:	79a2                	ld	s3,40(sp)
    800029f4:	7a02                	ld	s4,32(sp)
    800029f6:	6ae2                	ld	s5,24(sp)
    800029f8:	6b42                	ld	s6,16(sp)
    800029fa:	6161                	addi	sp,sp,80
    800029fc:	8082                	ret
    800029fe:	4501                	li	a0,0
    80002a00:	b7ed                	j	800029ea <lfs_cache_prog+0x118>
    80002a02:	fcc00513          	li	a0,-52
    80002a06:	6ba2                	ld	s7,8(sp)
    80002a08:	6c02                	ld	s8,0(sp)
    80002a0a:	b7c5                	j	800029ea <lfs_cache_prog+0x118>
    80002a0c:	6ba2                	ld	s7,8(sp)
    80002a0e:	6c02                	ld	s8,0(sp)
    80002a10:	bfe9                	j	800029ea <lfs_cache_prog+0x118>
    80002a12:	6ba2                	ld	s7,8(sp)
    80002a14:	6c02                	ld	s8,0(sp)
    80002a16:	bfd1                	j	800029ea <lfs_cache_prog+0x118>

0000000080002a18 <lfs_dir_open>:
    80002a18:	7139                	addi	sp,sp,-64
    80002a1a:	fc06                	sd	ra,56(sp)
    80002a1c:	f822                	sd	s0,48(sp)
    80002a1e:	f426                	sd	s1,40(sp)
    80002a20:	84aa                	mv	s1,a0
    80002a22:	842e                	mv	s0,a1
    80002a24:	e432                	sd	a2,8(sp)
    80002a26:	451c                	lw	a5,8(a0)
    80002a28:	c59c                	sw	a5,8(a1)
    80002a2a:	455c                	lw	a5,12(a0)
    80002a2c:	c5dc                	sw	a5,12(a1)
    80002a2e:	0034                	addi	a3,sp,8
    80002a30:	0810                	addi	a2,sp,16
    80002a32:	805ff0ef          	jal	80002236 <lfs_dir_find>
    80002a36:	e905                	bnez	a0,80002a66 <lfs_dir_open+0x4e>
    80002a38:	01414703          	lbu	a4,20(sp)
    80002a3c:	02200793          	li	a5,34
    80002a40:	02f71863          	bne	a4,a5,80002a70 <lfs_dir_open+0x58>
    80002a44:	0830                	addi	a2,sp,24
    80002a46:	85a2                	mv	a1,s0
    80002a48:	8526                	mv	a0,s1
    80002a4a:	a94ff0ef          	jal	80001cde <lfs_dir_fetch>
    80002a4e:	ed01                	bnez	a0,80002a66 <lfs_dir_open+0x4e>
    80002a50:	441c                	lw	a5,8(s0)
    80002a52:	c85c                	sw	a5,20(s0)
    80002a54:	445c                	lw	a5,12(s0)
    80002a56:	cc1c                	sw	a5,24(s0)
    80002a58:	47b9                	li	a5,14
    80002a5a:	cc5c                	sw	a5,28(s0)
    80002a5c:	47c1                	li	a5,16
    80002a5e:	c81c                	sw	a5,16(s0)
    80002a60:	6c9c                	ld	a5,24(s1)
    80002a62:	e01c                	sd	a5,0(s0)
    80002a64:	ec80                	sd	s0,24(s1)
    80002a66:	70e2                	ld	ra,56(sp)
    80002a68:	7442                	ld	s0,48(sp)
    80002a6a:	74a2                	ld	s1,40(sp)
    80002a6c:	6121                	addi	sp,sp,64
    80002a6e:	8082                	ret
    80002a70:	5531                	li	a0,-20
    80002a72:	bfd5                	j	80002a66 <lfs_dir_open+0x4e>

0000000080002a74 <lfs_dir_close>:
    80002a74:	6d1c                	ld	a5,24(a0)
    80002a76:	cb91                	beqz	a5,80002a8a <lfs_dir_close+0x16>
    80002a78:	00f58b63          	beq	a1,a5,80002a8e <lfs_dir_close+0x1a>
    80002a7c:	873e                	mv	a4,a5
    80002a7e:	639c                	ld	a5,0(a5)
    80002a80:	c789                	beqz	a5,80002a8a <lfs_dir_close+0x16>
    80002a82:	fef59de3          	bne	a1,a5,80002a7c <lfs_dir_close+0x8>
    80002a86:	619c                	ld	a5,0(a1)
    80002a88:	e31c                	sd	a5,0(a4)
    80002a8a:	4501                	li	a0,0
    80002a8c:	8082                	ret
    80002a8e:	01850713          	addi	a4,a0,24
    80002a92:	bfd5                	j	80002a86 <lfs_dir_close+0x12>

0000000080002a94 <lfs_dir_read>:
    80002a94:	7139                	addi	sp,sp,-64
    80002a96:	fc06                	sd	ra,56(sp)
    80002a98:	f822                	sd	s0,48(sp)
    80002a9a:	f426                	sd	s1,40(sp)
    80002a9c:	f04a                	sd	s2,32(sp)
    80002a9e:	84aa                	mv	s1,a0
    80002aa0:	842e                	mv	s0,a1
    80002aa2:	8932                	mv	s2,a2
    80002aa4:	10800613          	li	a2,264
    80002aa8:	4581                	li	a1,0
    80002aaa:	854a                	mv	a0,s2
    80002aac:	c77fe0ef          	jal	80001722 <memset>
    80002ab0:	4c5c                	lw	a5,28(s0)
    80002ab2:	4739                	li	a4,14
    80002ab4:	08e78c63          	beq	a5,a4,80002b4c <lfs_dir_read+0xb8>
    80002ab8:	473d                	li	a4,15
    80002aba:	0ae78663          	beq	a5,a4,80002b66 <lfs_dir_read+0xd2>
    80002abe:	ec4e                	sd	s3,24(sp)
    80002ac0:	e852                	sd	s4,16(sp)
    80002ac2:	49c5                	li	s3,17
    80002ac4:	02200a13          	li	s4,34
    80002ac8:	860a                	mv	a2,sp
    80002aca:	85a2                	mv	a1,s0
    80002acc:	8526                	mv	a0,s1
    80002ace:	b80ff0ef          	jal	80001e4e <lfs_dir_next>
    80002ad2:	e955                	bnez	a0,80002b86 <lfs_dir_read+0xf2>
    80002ad4:	00414783          	lbu	a5,4(sp)
    80002ad8:	07f7f713          	andi	a4,a5,127
    80002adc:	01370463          	beq	a4,s3,80002ae4 <lfs_dir_read+0x50>
    80002ae0:	ff4714e3          	bne	a4,s4,80002ac8 <lfs_dir_read+0x34>
    80002ae4:	0187979b          	slliw	a5,a5,0x18
    80002ae8:	4187d79b          	sraiw	a5,a5,0x18
    80002aec:	0007df63          	bgez	a5,80002b0a <lfs_dir_read+0x76>
    80002af0:	002c                	addi	a1,sp,8
    80002af2:	8526                	mv	a0,s1
    80002af4:	c48ff0ef          	jal	80001f3c <lfs_moved>
    80002af8:	0a054563          	bltz	a0,80002ba2 <lfs_dir_read+0x10e>
    80002afc:	f571                	bnez	a0,80002ac8 <lfs_dir_read+0x34>
    80002afe:	00414783          	lbu	a5,4(sp)
    80002b02:	07f7f793          	andi	a5,a5,127
    80002b06:	00f10223          	sb	a5,4(sp)
    80002b0a:	00414783          	lbu	a5,4(sp)
    80002b0e:	00f90023          	sb	a5,0(s2)
    80002b12:	4745                	li	a4,17
    80002b14:	06e78f63          	beq	a5,a4,80002b92 <lfs_dir_read+0xfe>
    80002b18:	4782                	lw	a5,0(sp)
    80002b1a:	2791                	addiw	a5,a5,4
    80002b1c:	00514703          	lbu	a4,5(sp)
    80002b20:	9fb9                	addw	a5,a5,a4
    80002b22:	00614603          	lbu	a2,6(sp)
    80002b26:	00714703          	lbu	a4,7(sp)
    80002b2a:	00890693          	addi	a3,s2,8
    80002b2e:	9e3d                	addw	a2,a2,a5
    80002b30:	440c                	lw	a1,8(s0)
    80002b32:	8526                	mv	a0,s1
    80002b34:	98eff0ef          	jal	80001cc2 <lfs_bd_read>
    80002b38:	e925                	bnez	a0,80002ba8 <lfs_dir_read+0x114>
    80002b3a:	4505                	li	a0,1
    80002b3c:	69e2                	ld	s3,24(sp)
    80002b3e:	6a42                	ld	s4,16(sp)
    80002b40:	70e2                	ld	ra,56(sp)
    80002b42:	7442                	ld	s0,48(sp)
    80002b44:	74a2                	ld	s1,40(sp)
    80002b46:	7902                	ld	s2,32(sp)
    80002b48:	6121                	addi	sp,sp,64
    80002b4a:	8082                	ret
    80002b4c:	02200793          	li	a5,34
    80002b50:	00f90023          	sb	a5,0(s2)
    80002b54:	02e00793          	li	a5,46
    80002b58:	00f91423          	sh	a5,8(s2)
    80002b5c:	4c5c                	lw	a5,28(s0)
    80002b5e:	2785                	addiw	a5,a5,1
    80002b60:	cc5c                	sw	a5,28(s0)
    80002b62:	4505                	li	a0,1
    80002b64:	bff1                	j	80002b40 <lfs_dir_read+0xac>
    80002b66:	02200793          	li	a5,34
    80002b6a:	00f90023          	sb	a5,0(s2)
    80002b6e:	678d                	lui	a5,0x3
    80002b70:	e2e78793          	addi	a5,a5,-466 # 2e2e <_ftext-0x7fffd1d2>
    80002b74:	00f91423          	sh	a5,8(s2)
    80002b78:	00090523          	sb	zero,10(s2)
    80002b7c:	4c5c                	lw	a5,28(s0)
    80002b7e:	2785                	addiw	a5,a5,1
    80002b80:	cc5c                	sw	a5,28(s0)
    80002b82:	4505                	li	a0,1
    80002b84:	bf75                	j	80002b40 <lfs_dir_read+0xac>
    80002b86:	57f9                	li	a5,-2
    80002b88:	00f50963          	beq	a0,a5,80002b9a <lfs_dir_read+0x106>
    80002b8c:	69e2                	ld	s3,24(sp)
    80002b8e:	6a42                	ld	s4,16(sp)
    80002b90:	bf45                	j	80002b40 <lfs_dir_read+0xac>
    80002b92:	47b2                	lw	a5,12(sp)
    80002b94:	00f92223          	sw	a5,4(s2)
    80002b98:	b741                	j	80002b18 <lfs_dir_read+0x84>
    80002b9a:	4501                	li	a0,0
    80002b9c:	69e2                	ld	s3,24(sp)
    80002b9e:	6a42                	ld	s4,16(sp)
    80002ba0:	b745                	j	80002b40 <lfs_dir_read+0xac>
    80002ba2:	69e2                	ld	s3,24(sp)
    80002ba4:	6a42                	ld	s4,16(sp)
    80002ba6:	bf69                	j	80002b40 <lfs_dir_read+0xac>
    80002ba8:	69e2                	ld	s3,24(sp)
    80002baa:	6a42                	ld	s4,16(sp)
    80002bac:	bf51                	j	80002b40 <lfs_dir_read+0xac>

0000000080002bae <lfs_dir_tell>:
    80002bae:	4dc8                	lw	a0,28(a1)
    80002bb0:	8082                	ret

0000000080002bb2 <lfs_dir_rewind>:
    80002bb2:	1141                	addi	sp,sp,-16
    80002bb4:	e406                	sd	ra,8(sp)
    80002bb6:	e022                	sd	s0,0(sp)
    80002bb8:	842e                	mv	s0,a1
    80002bba:	01458613          	addi	a2,a1,20
    80002bbe:	920ff0ef          	jal	80001cde <lfs_dir_fetch>
    80002bc2:	e909                	bnez	a0,80002bd4 <lfs_dir_rewind+0x22>
    80002bc4:	485c                	lw	a5,20(s0)
    80002bc6:	c41c                	sw	a5,8(s0)
    80002bc8:	4c1c                	lw	a5,24(s0)
    80002bca:	c45c                	sw	a5,12(s0)
    80002bcc:	47b9                	li	a5,14
    80002bce:	cc5c                	sw	a5,28(s0)
    80002bd0:	47c1                	li	a5,16
    80002bd2:	c81c                	sw	a5,16(s0)
    80002bd4:	60a2                	ld	ra,8(sp)
    80002bd6:	6402                	ld	s0,0(sp)
    80002bd8:	0141                	addi	sp,sp,16
    80002bda:	8082                	ret

0000000080002bdc <lfs_dir_seek>:
    80002bdc:	7139                	addi	sp,sp,-64
    80002bde:	fc06                	sd	ra,56(sp)
    80002be0:	f822                	sd	s0,48(sp)
    80002be2:	f426                	sd	s1,40(sp)
    80002be4:	f04a                	sd	s2,32(sp)
    80002be6:	e456                	sd	s5,8(sp)
    80002be8:	892a                	mv	s2,a0
    80002bea:	84ae                	mv	s1,a1
    80002bec:	8432                	mv	s0,a2
    80002bee:	fc5ff0ef          	jal	80002bb2 <lfs_dir_rewind>
    80002bf2:	8aaa                	mv	s5,a0
    80002bf4:	ed1d                	bnez	a0,80002c32 <lfs_dir_seek+0x56>
    80002bf6:	ec4e                	sd	s3,24(sp)
    80002bf8:	e852                	sd	s4,16(sp)
    80002bfa:	ccc0                	sw	s0,28(s1)
    80002bfc:	800009b7          	lui	s3,0x80000
    80002c00:	fff9c993          	not	s3,s3
    80002c04:	02848a13          	addi	s4,s1,40
    80002c08:	50d8                	lw	a4,36(s1)
    80002c0a:	013777b3          	and	a5,a4,s3
    80002c0e:	0087ff63          	bgeu	a5,s0,80002c2c <lfs_dir_seek+0x50>
    80002c12:	9c1d                	subw	s0,s0,a5
    80002c14:	02075763          	bgez	a4,80002c42 <lfs_dir_seek+0x66>
    80002c18:	8652                	mv	a2,s4
    80002c1a:	85a6                	mv	a1,s1
    80002c1c:	854a                	mv	a0,s2
    80002c1e:	8c0ff0ef          	jal	80001cde <lfs_dir_fetch>
    80002c22:	d17d                	beqz	a0,80002c08 <lfs_dir_seek+0x2c>
    80002c24:	8aaa                	mv	s5,a0
    80002c26:	69e2                	ld	s3,24(sp)
    80002c28:	6a42                	ld	s4,16(sp)
    80002c2a:	a021                	j	80002c32 <lfs_dir_seek+0x56>
    80002c2c:	c880                	sw	s0,16(s1)
    80002c2e:	69e2                	ld	s3,24(sp)
    80002c30:	6a42                	ld	s4,16(sp)
    80002c32:	8556                	mv	a0,s5
    80002c34:	70e2                	ld	ra,56(sp)
    80002c36:	7442                	ld	s0,48(sp)
    80002c38:	74a2                	ld	s1,40(sp)
    80002c3a:	7902                	ld	s2,32(sp)
    80002c3c:	6aa2                	ld	s5,8(sp)
    80002c3e:	6121                	addi	sp,sp,64
    80002c40:	8082                	ret
    80002c42:	5aa9                	li	s5,-22
    80002c44:	69e2                	ld	s3,24(sp)
    80002c46:	6a42                	ld	s4,16(sp)
    80002c48:	b7ed                	j	80002c32 <lfs_dir_seek+0x56>

0000000080002c4a <lfs_file_tell>:
    80002c4a:	55c8                	lw	a0,44(a1)
    80002c4c:	8082                	ret

0000000080002c4e <lfs_file_size>:
    80002c4e:	559c                	lw	a5,40(a1)
    80002c50:	02e79713          	slli	a4,a5,0x2e
    80002c54:	00075b63          	bgez	a4,80002c6a <lfs_file_size+0x1c>
    80002c58:	4d98                	lw	a4,24(a1)
    80002c5a:	55dc                	lw	a5,44(a1)
    80002c5c:	853e                	mv	a0,a5
    80002c5e:	2781                	sext.w	a5,a5
    80002c60:	00e7f363          	bgeu	a5,a4,80002c66 <lfs_file_size+0x18>
    80002c64:	853a                	mv	a0,a4
    80002c66:	2501                	sext.w	a0,a0
    80002c68:	8082                	ret
    80002c6a:	4d88                	lw	a0,24(a1)
    80002c6c:	8082                	ret

0000000080002c6e <lfs_stat>:
    80002c6e:	7159                	addi	sp,sp,-112
    80002c70:	f486                	sd	ra,104(sp)
    80002c72:	f0a2                	sd	s0,96(sp)
    80002c74:	eca6                	sd	s1,88(sp)
    80002c76:	e8ca                	sd	s2,80(sp)
    80002c78:	892a                	mv	s2,a0
    80002c7a:	e42e                	sd	a1,8(sp)
    80002c7c:	84b2                	mv	s1,a2
    80002c7e:	0034                	addi	a3,sp,8
    80002c80:	0810                	addi	a2,sp,16
    80002c82:	100c                	addi	a1,sp,32
    80002c84:	db2ff0ef          	jal	80002236 <lfs_dir_find>
    80002c88:	842a                	mv	s0,a0
    80002c8a:	c901                	beqz	a0,80002c9a <lfs_stat+0x2c>
    80002c8c:	8522                	mv	a0,s0
    80002c8e:	70a6                	ld	ra,104(sp)
    80002c90:	7406                	ld	s0,96(sp)
    80002c92:	64e6                	ld	s1,88(sp)
    80002c94:	6946                	ld	s2,80(sp)
    80002c96:	6165                	addi	sp,sp,112
    80002c98:	8082                	ret
    80002c9a:	10800613          	li	a2,264
    80002c9e:	4581                	li	a1,0
    80002ca0:	8526                	mv	a0,s1
    80002ca2:	a81fe0ef          	jal	80001722 <memset>
    80002ca6:	01414783          	lbu	a5,20(sp)
    80002caa:	00f48023          	sb	a5,0(s1)
    80002cae:	4745                	li	a4,17
    80002cb0:	04e78263          	beq	a5,a4,80002cf4 <lfs_stat+0x86>
    80002cb4:	47e2                	lw	a5,24(sp)
    80002cb6:	00892703          	lw	a4,8(s2)
    80002cba:	04e78063          	beq	a5,a4,80002cfa <lfs_stat+0x8c>
    80002cbe:	4672                	lw	a2,28(sp)
    80002cc0:	00c92683          	lw	a3,12(s2)
    80002cc4:	02d60b63          	beq	a2,a3,80002cfa <lfs_stat+0x8c>
    80002cc8:	02d78963          	beq	a5,a3,80002cfa <lfs_stat+0x8c>
    80002ccc:	02c70763          	beq	a4,a2,80002cfa <lfs_stat+0x8c>
    80002cd0:	47c2                	lw	a5,16(sp)
    80002cd2:	2791                	addiw	a5,a5,4
    80002cd4:	01514703          	lbu	a4,21(sp)
    80002cd8:	9fb9                	addw	a5,a5,a4
    80002cda:	01614603          	lbu	a2,22(sp)
    80002cde:	01714703          	lbu	a4,23(sp)
    80002ce2:	00848693          	addi	a3,s1,8
    80002ce6:	9e3d                	addw	a2,a2,a5
    80002ce8:	55a2                	lw	a1,40(sp)
    80002cea:	854a                	mv	a0,s2
    80002cec:	fd7fe0ef          	jal	80001cc2 <lfs_bd_read>
    80002cf0:	842a                	mv	s0,a0
    80002cf2:	bf69                	j	80002c8c <lfs_stat+0x1e>
    80002cf4:	47f2                	lw	a5,28(sp)
    80002cf6:	c0dc                	sw	a5,4(s1)
    80002cf8:	bf75                	j	80002cb4 <lfs_stat+0x46>
    80002cfa:	02f00793          	li	a5,47
    80002cfe:	00f49423          	sh	a5,8(s1)
    80002d02:	b769                	j	80002c8c <lfs_stat+0x1e>

0000000080002d04 <lfs_mount>:
    80002d04:	7175                	addi	sp,sp,-144
    80002d06:	e506                	sd	ra,136(sp)
    80002d08:	e122                	sd	s0,128(sp)
    80002d0a:	fca6                	sd	s1,120(sp)
    80002d0c:	842a                	mv	s0,a0
    80002d0e:	8efff0ef          	jal	800025fc <lfs_init>
    80002d12:	84aa                	mv	s1,a0
    80002d14:	c519                	beqz	a0,80002d22 <lfs_mount+0x1e>
    80002d16:	8526                	mv	a0,s1
    80002d18:	60aa                	ld	ra,136(sp)
    80002d1a:	640a                	ld	s0,128(sp)
    80002d1c:	74e6                	ld	s1,120(sp)
    80002d1e:	6149                	addi	sp,sp,144
    80002d20:	8082                	ret
    80002d22:	f8ca                	sd	s2,112(sp)
    80002d24:	04042023          	sw	zero,64(s0)
    80002d28:	04042223          	sw	zero,68(s0)
    80002d2c:	04042423          	sw	zero,72(s0)
    80002d30:	601c                	ld	a5,0(s0)
    80002d32:	5bdc                	lw	a5,52(a5)
    80002d34:	c47c                	sw	a5,76(s0)
    80002d36:	cc82                	sw	zero,88(sp)
    80002d38:	4785                	li	a5,1
    80002d3a:	cebe                	sw	a5,92(sp)
    80002d3c:	08b0                	addi	a2,sp,88
    80002d3e:	102c                	addi	a1,sp,40
    80002d40:	8522                	mv	a0,s0
    80002d42:	f9dfe0ef          	jal	80001cde <lfs_dir_fetch>
    80002d46:	892a                	mv	s2,a0
    80002d48:	c519                	beqz	a0,80002d56 <lfs_mount+0x52>
    80002d4a:	8522                	mv	a0,s0
    80002d4c:	eb8ff0ef          	jal	80002404 <lfs_deinit>
    80002d50:	84ca                	mv	s1,s2
    80002d52:	7946                	ld	s2,112(sp)
    80002d54:	b7c9                	j	80002d16 <lfs_mount+0x12>
    80002d56:	f4ce                	sd	s3,104(sp)
    80002d58:	f0d2                	sd	s4,96(sp)
    80002d5a:	02000713          	li	a4,32
    80002d5e:	0054                	addi	a3,sp,4
    80002d60:	4641                	li	a2,16
    80002d62:	55c2                	lw	a1,48(sp)
    80002d64:	8522                	mv	a0,s0
    80002d66:	f5dfe0ef          	jal	80001cc2 <lfs_bd_read>
    80002d6a:	892a                	mv	s2,a0
    80002d6c:	47a2                	lw	a5,8(sp)
    80002d6e:	0087d693          	srli	a3,a5,0x8
    80002d72:	0ff6f693          	zext.b	a3,a3
    80002d76:	0086969b          	slliw	a3,a3,0x8
    80002d7a:	0107d713          	srli	a4,a5,0x10
    80002d7e:	0ff77713          	zext.b	a4,a4
    80002d82:	0107171b          	slliw	a4,a4,0x10
    80002d86:	8ed9                	or	a3,a3,a4
    80002d88:	0ff7f713          	zext.b	a4,a5
    80002d8c:	8ed9                	or	a3,a3,a4
    80002d8e:	0187d79b          	srliw	a5,a5,0x18
    80002d92:	0187979b          	slliw	a5,a5,0x18
    80002d96:	8edd                	or	a3,a3,a5
    80002d98:	2681                	sext.w	a3,a3
    80002d9a:	c436                	sw	a3,8(sp)
    80002d9c:	47b2                	lw	a5,12(sp)
    80002d9e:	0087d713          	srli	a4,a5,0x8
    80002da2:	0ff77713          	zext.b	a4,a4
    80002da6:	0087171b          	slliw	a4,a4,0x8
    80002daa:	0107d613          	srli	a2,a5,0x10
    80002dae:	0ff67613          	zext.b	a2,a2
    80002db2:	0106161b          	slliw	a2,a2,0x10
    80002db6:	8f51                	or	a4,a4,a2
    80002db8:	0ff7f613          	zext.b	a2,a5
    80002dbc:	8f51                	or	a4,a4,a2
    80002dbe:	0187d79b          	srliw	a5,a5,0x18
    80002dc2:	0187979b          	slliw	a5,a5,0x18
    80002dc6:	8f5d                	or	a4,a4,a5
    80002dc8:	2701                	sext.w	a4,a4
    80002dca:	c63a                	sw	a4,12(sp)
    80002dcc:	4642                	lw	a2,16(sp)
    80002dce:	00865793          	srli	a5,a2,0x8
    80002dd2:	0ff7f793          	zext.b	a5,a5
    80002dd6:	0087979b          	slliw	a5,a5,0x8
    80002dda:	01065593          	srli	a1,a2,0x10
    80002dde:	0ff5f593          	zext.b	a1,a1
    80002de2:	0105959b          	slliw	a1,a1,0x10
    80002de6:	8fcd                	or	a5,a5,a1
    80002de8:	0ff67593          	zext.b	a1,a2
    80002dec:	8fcd                	or	a5,a5,a1
    80002dee:	0186561b          	srliw	a2,a2,0x18
    80002df2:	0186161b          	slliw	a2,a2,0x18
    80002df6:	8fd1                	or	a5,a5,a2
    80002df8:	c83e                	sw	a5,16(sp)
    80002dfa:	4652                	lw	a2,20(sp)
    80002dfc:	00865793          	srli	a5,a2,0x8
    80002e00:	0ff7f793          	zext.b	a5,a5
    80002e04:	0087979b          	slliw	a5,a5,0x8
    80002e08:	01065593          	srli	a1,a2,0x10
    80002e0c:	0ff5f593          	zext.b	a1,a1
    80002e10:	0105959b          	slliw	a1,a1,0x10
    80002e14:	8fcd                	or	a5,a5,a1
    80002e16:	0ff67593          	zext.b	a1,a2
    80002e1a:	8fcd                	or	a5,a5,a1
    80002e1c:	0186561b          	srliw	a2,a2,0x18
    80002e20:	0186161b          	slliw	a2,a2,0x18
    80002e24:	8fd1                	or	a5,a5,a2
    80002e26:	ca3e                	sw	a5,20(sp)
    80002e28:	4662                	lw	a2,24(sp)
    80002e2a:	00865793          	srli	a5,a2,0x8
    80002e2e:	0ff7f793          	zext.b	a5,a5
    80002e32:	0087979b          	slliw	a5,a5,0x8
    80002e36:	01065593          	srli	a1,a2,0x10
    80002e3a:	0ff5f593          	zext.b	a1,a1
    80002e3e:	0105959b          	slliw	a1,a1,0x10
    80002e42:	8fcd                	or	a5,a5,a1
    80002e44:	0ff67593          	zext.b	a1,a2
    80002e48:	8fcd                	or	a5,a5,a1
    80002e4a:	0186561b          	srliw	a2,a2,0x18
    80002e4e:	0186161b          	slliw	a2,a2,0x18
    80002e52:	8fd1                	or	a5,a5,a2
    80002e54:	00078a1b          	sext.w	s4,a5
    80002e58:	cc52                	sw	s4,24(sp)
    80002e5a:	e921                	bnez	a0,80002eaa <lfs_mount+0x1a6>
    80002e5c:	c414                	sw	a3,8(s0)
    80002e5e:	c458                	sw	a4,12(s0)
    80002e60:	4621                	li	a2,8
    80002e62:	00003597          	auipc	a1,0x3
    80002e66:	1f658593          	addi	a1,a1,502 # 80006058 <rtable.0+0x1c0>
    80002e6a:	0868                	addi	a0,sp,28
    80002e6c:	343020ef          	jal	800059ae <memcmp>
    80002e70:	e505                	bnez	a0,80002e98 <lfs_mount+0x194>
    80002e72:	010a579b          	srliw	a5,s4,0x10
    80002e76:	4705                	li	a4,1
    80002e78:	02e79563          	bne	a5,a4,80002ea2 <lfs_mount+0x19e>
    80002e7c:	1a42                	slli	s4,s4,0x30
    80002e7e:	030a5a13          	srli	s4,s4,0x30
    80002e82:	4785                	li	a5,1
    80002e84:	5929                	li	s2,-22
    80002e86:	0147f563          	bgeu	a5,s4,80002e90 <lfs_mount+0x18c>
    80002e8a:	79a6                	ld	s3,104(sp)
    80002e8c:	7a06                	ld	s4,96(sp)
    80002e8e:	bd75                	j	80002d4a <lfs_mount+0x46>
    80002e90:	7946                	ld	s2,112(sp)
    80002e92:	79a6                	ld	s3,104(sp)
    80002e94:	7a06                	ld	s4,96(sp)
    80002e96:	b541                	j	80002d16 <lfs_mount+0x12>
    80002e98:	fcc00913          	li	s2,-52
    80002e9c:	79a6                	ld	s3,104(sp)
    80002e9e:	7a06                	ld	s4,96(sp)
    80002ea0:	b56d                	j	80002d4a <lfs_mount+0x46>
    80002ea2:	5929                	li	s2,-22
    80002ea4:	79a6                	ld	s3,104(sp)
    80002ea6:	7a06                	ld	s4,96(sp)
    80002ea8:	b54d                	j	80002d4a <lfs_mount+0x46>
    80002eaa:	79a6                	ld	s3,104(sp)
    80002eac:	7a06                	ld	s4,96(sp)
    80002eae:	bd71                	j	80002d4a <lfs_mount+0x46>

0000000080002eb0 <lfs_unmount>:
    80002eb0:	1141                	addi	sp,sp,-16
    80002eb2:	e406                	sd	ra,8(sp)
    80002eb4:	d50ff0ef          	jal	80002404 <lfs_deinit>
    80002eb8:	4501                	li	a0,0
    80002eba:	60a2                	ld	ra,8(sp)
    80002ebc:	0141                	addi	sp,sp,16
    80002ebe:	8082                	ret

0000000080002ec0 <lfs_traverse>:
    80002ec0:	7135                	addi	sp,sp,-160
    80002ec2:	ed06                	sd	ra,152(sp)
    80002ec4:	ecde                	sd	s7,88(sp)
    80002ec6:	4518                	lw	a4,8(a0)
    80002ec8:	57fd                	li	a5,-1
    80002eca:	16f70d63          	beq	a4,a5,80003044 <lfs_traverse+0x184>
    80002ece:	e922                	sd	s0,144(sp)
    80002ed0:	fcce                	sd	s3,120(sp)
    80002ed2:	f8d2                	sd	s4,112(sp)
    80002ed4:	842a                	mv	s0,a0
    80002ed6:	89ae                	mv	s3,a1
    80002ed8:	8a32                	mv	s4,a2
    80002eda:	4558                	lw	a4,12(a0)
    80002edc:	16f70a63          	beq	a4,a5,80003050 <lfs_traverse+0x190>
    80002ee0:	e526                	sd	s1,136(sp)
    80002ee2:	e14a                	sd	s2,128(sp)
    80002ee4:	f4d6                	sd	s5,104(sp)
    80002ee6:	f0da                	sd	s6,96(sp)
    80002ee8:	c402                	sw	zero,8(sp)
    80002eea:	4785                	li	a5,1
    80002eec:	c63e                	sw	a5,12(sp)
    80002eee:	800004b7          	lui	s1,0x80000
    80002ef2:	fff4c493          	not	s1,s1
    80002ef6:	4941                	li	s2,16
    80002ef8:	45a2                	lw	a1,8(sp)
    80002efa:	8552                	mv	a0,s4
    80002efc:	9982                	jalr	s3
    80002efe:	8baa                	mv	s7,a0
    80002f00:	16051f63          	bnez	a0,8000307e <lfs_traverse+0x1be>
    80002f04:	45b2                	lw	a1,12(sp)
    80002f06:	8552                	mv	a0,s4
    80002f08:	9982                	jalr	s3
    80002f0a:	8baa                	mv	s7,a0
    80002f0c:	18051163          	bnez	a0,8000308e <lfs_traverse+0x1ce>
    80002f10:	0030                	addi	a2,sp,8
    80002f12:	100c                	addi	a1,sp,32
    80002f14:	8522                	mv	a0,s0
    80002f16:	dc9fe0ef          	jal	80001cde <lfs_dir_fetch>
    80002f1a:	8aaa                	mv	s5,a0
    80002f1c:	12051f63          	bnez	a0,8000305a <lfs_traverse+0x19a>
    80002f20:	5b42                	lw	s6,48(sp)
    80002f22:	020b1793          	slli	a5,s6,0x20
    80002f26:	9381                	srli	a5,a5,0x20
    80002f28:	07b1                	addi	a5,a5,12
    80002f2a:	4716                	lw	a4,68(sp)
    80002f2c:	8f65                	and	a4,a4,s1
    80002f2e:	3771                	addiw	a4,a4,-4
    80002f30:	1702                	slli	a4,a4,0x20
    80002f32:	9301                	srli	a4,a4,0x20
    80002f34:	06f76563          	bltu	a4,a5,80002f9e <lfs_traverse+0xde>
    80002f38:	4731                	li	a4,12
    80002f3a:	0854                	addi	a3,sp,20
    80002f3c:	865a                	mv	a2,s6
    80002f3e:	55a2                	lw	a1,40(sp)
    80002f40:	8522                	mv	a0,s0
    80002f42:	d81fe0ef          	jal	80001cc2 <lfs_bd_read>
    80002f46:	8baa                	mv	s7,a0
    80002f48:	0848                	addi	a0,sp,20
    80002f4a:	b5bfe0ef          	jal	80001aa4 <lfs_entry_fromle32>
    80002f4e:	140b9863          	bnez	s7,8000309e <lfs_traverse+0x1de>
    80002f52:	01514703          	lbu	a4,21(sp)
    80002f56:	2711                	addiw	a4,a4,4
    80002f58:	01614783          	lbu	a5,22(sp)
    80002f5c:	9f3d                	addw	a4,a4,a5
    80002f5e:	01714783          	lbu	a5,23(sp)
    80002f62:	9f3d                	addw	a4,a4,a5
    80002f64:	0167073b          	addw	a4,a4,s6
    80002f68:	d83a                	sw	a4,48(sp)
    80002f6a:	01414783          	lbu	a5,20(sp)
    80002f6e:	0707f793          	andi	a5,a5,112
    80002f72:	fb2797e3          	bne	a5,s2,80002f20 <lfs_traverse+0x60>
    80002f76:	8852                	mv	a6,s4
    80002f78:	87ce                	mv	a5,s3
    80002f7a:	4772                	lw	a4,28(sp)
    80002f7c:	46e2                	lw	a3,24(sp)
    80002f7e:	4601                	li	a2,0
    80002f80:	02040593          	addi	a1,s0,32
    80002f84:	8522                	mv	a0,s0
    80002f86:	d74ff0ef          	jal	800024fa <lfs_ctz_traverse>
    80002f8a:	8baa                	mv	s7,a0
    80002f8c:	d951                	beqz	a0,80002f20 <lfs_traverse+0x60>
    80002f8e:	644a                	ld	s0,144(sp)
    80002f90:	64aa                	ld	s1,136(sp)
    80002f92:	690a                	ld	s2,128(sp)
    80002f94:	79e6                	ld	s3,120(sp)
    80002f96:	7a46                	ld	s4,112(sp)
    80002f98:	7aa6                	ld	s5,104(sp)
    80002f9a:	7b06                	ld	s6,96(sp)
    80002f9c:	a06d                	j	80003046 <lfs_traverse+0x186>
    80002f9e:	47a6                	lw	a5,72(sp)
    80002fa0:	c43e                	sw	a5,8(sp)
    80002fa2:	4736                	lw	a4,76(sp)
    80002fa4:	c63a                	sw	a4,12(sp)
    80002fa6:	56fd                	li	a3,-1
    80002fa8:	00d78563          	beq	a5,a3,80002fb2 <lfs_traverse+0xf2>
    80002fac:	57fd                	li	a5,-1
    80002fae:	f4f715e3          	bne	a4,a5,80002ef8 <lfs_traverse+0x38>
    80002fb2:	6804                	ld	s1,16(s0)
    80002fb4:	ccc5                	beqz	s1,8000306c <lfs_traverse+0x1ac>
    80002fb6:	e8e2                	sd	s8,80(sp)
    80002fb8:	6941                	lui	s2,0x10
    80002fba:	02040c13          	addi	s8,s0,32
    80002fbe:	00020b37          	lui	s6,0x20
    80002fc2:	a805                	j	80002ff2 <lfs_traverse+0x132>
    80002fc4:	8852                	mv	a6,s4
    80002fc6:	87ce                	mv	a5,s3
    80002fc8:	4c98                	lw	a4,24(s1)
    80002fca:	48d4                	lw	a3,20(s1)
    80002fcc:	03848613          	addi	a2,s1,56 # ffffffff80000038 <_sp+0xfffffffef1000038>
    80002fd0:	85e2                	mv	a1,s8
    80002fd2:	8522                	mv	a0,s0
    80002fd4:	d26ff0ef          	jal	800024fa <lfs_ctz_traverse>
    80002fd8:	8baa                	mv	s7,a0
    80002fda:	c10d                	beqz	a0,80002ffc <lfs_traverse+0x13c>
    80002fdc:	644a                	ld	s0,144(sp)
    80002fde:	64aa                	ld	s1,136(sp)
    80002fe0:	690a                	ld	s2,128(sp)
    80002fe2:	79e6                	ld	s3,120(sp)
    80002fe4:	7a46                	ld	s4,112(sp)
    80002fe6:	7aa6                	ld	s5,104(sp)
    80002fe8:	7b06                	ld	s6,96(sp)
    80002fea:	6c46                	ld	s8,80(sp)
    80002fec:	a8a9                	j	80003046 <lfs_traverse+0x186>
    80002fee:	6084                	ld	s1,0(s1)
    80002ff0:	c0a1                	beqz	s1,80003030 <lfs_traverse+0x170>
    80002ff2:	549c                	lw	a5,40(s1)
    80002ff4:	0127f7b3          	and	a5,a5,s2
    80002ff8:	2781                	sext.w	a5,a5
    80002ffa:	f7e9                	bnez	a5,80002fc4 <lfs_traverse+0x104>
    80002ffc:	549c                	lw	a5,40(s1)
    80002ffe:	0167f7b3          	and	a5,a5,s6
    80003002:	2781                	sext.w	a5,a5
    80003004:	d7ed                	beqz	a5,80002fee <lfs_traverse+0x12e>
    80003006:	8852                	mv	a6,s4
    80003008:	87ce                	mv	a5,s3
    8000300a:	54d8                	lw	a4,44(s1)
    8000300c:	5894                	lw	a3,48(s1)
    8000300e:	03848613          	addi	a2,s1,56
    80003012:	85e2                	mv	a1,s8
    80003014:	8522                	mv	a0,s0
    80003016:	ce4ff0ef          	jal	800024fa <lfs_ctz_traverse>
    8000301a:	8baa                	mv	s7,a0
    8000301c:	d969                	beqz	a0,80002fee <lfs_traverse+0x12e>
    8000301e:	644a                	ld	s0,144(sp)
    80003020:	64aa                	ld	s1,136(sp)
    80003022:	690a                	ld	s2,128(sp)
    80003024:	79e6                	ld	s3,120(sp)
    80003026:	7a46                	ld	s4,112(sp)
    80003028:	7aa6                	ld	s5,104(sp)
    8000302a:	7b06                	ld	s6,96(sp)
    8000302c:	6c46                	ld	s8,80(sp)
    8000302e:	a821                	j	80003046 <lfs_traverse+0x186>
    80003030:	8bd6                	mv	s7,s5
    80003032:	644a                	ld	s0,144(sp)
    80003034:	64aa                	ld	s1,136(sp)
    80003036:	690a                	ld	s2,128(sp)
    80003038:	79e6                	ld	s3,120(sp)
    8000303a:	7a46                	ld	s4,112(sp)
    8000303c:	7aa6                	ld	s5,104(sp)
    8000303e:	7b06                	ld	s6,96(sp)
    80003040:	6c46                	ld	s8,80(sp)
    80003042:	a011                	j	80003046 <lfs_traverse+0x186>
    80003044:	4b81                	li	s7,0
    80003046:	855e                	mv	a0,s7
    80003048:	60ea                	ld	ra,152(sp)
    8000304a:	6be6                	ld	s7,88(sp)
    8000304c:	610d                	addi	sp,sp,160
    8000304e:	8082                	ret
    80003050:	4b81                	li	s7,0
    80003052:	644a                	ld	s0,144(sp)
    80003054:	79e6                	ld	s3,120(sp)
    80003056:	7a46                	ld	s4,112(sp)
    80003058:	b7fd                	j	80003046 <lfs_traverse+0x186>
    8000305a:	8baa                	mv	s7,a0
    8000305c:	644a                	ld	s0,144(sp)
    8000305e:	64aa                	ld	s1,136(sp)
    80003060:	690a                	ld	s2,128(sp)
    80003062:	79e6                	ld	s3,120(sp)
    80003064:	7a46                	ld	s4,112(sp)
    80003066:	7aa6                	ld	s5,104(sp)
    80003068:	7b06                	ld	s6,96(sp)
    8000306a:	bff1                	j	80003046 <lfs_traverse+0x186>
    8000306c:	8bd6                	mv	s7,s5
    8000306e:	644a                	ld	s0,144(sp)
    80003070:	64aa                	ld	s1,136(sp)
    80003072:	690a                	ld	s2,128(sp)
    80003074:	79e6                	ld	s3,120(sp)
    80003076:	7a46                	ld	s4,112(sp)
    80003078:	7aa6                	ld	s5,104(sp)
    8000307a:	7b06                	ld	s6,96(sp)
    8000307c:	b7e9                	j	80003046 <lfs_traverse+0x186>
    8000307e:	644a                	ld	s0,144(sp)
    80003080:	64aa                	ld	s1,136(sp)
    80003082:	690a                	ld	s2,128(sp)
    80003084:	79e6                	ld	s3,120(sp)
    80003086:	7a46                	ld	s4,112(sp)
    80003088:	7aa6                	ld	s5,104(sp)
    8000308a:	7b06                	ld	s6,96(sp)
    8000308c:	bf6d                	j	80003046 <lfs_traverse+0x186>
    8000308e:	644a                	ld	s0,144(sp)
    80003090:	64aa                	ld	s1,136(sp)
    80003092:	690a                	ld	s2,128(sp)
    80003094:	79e6                	ld	s3,120(sp)
    80003096:	7a46                	ld	s4,112(sp)
    80003098:	7aa6                	ld	s5,104(sp)
    8000309a:	7b06                	ld	s6,96(sp)
    8000309c:	b76d                	j	80003046 <lfs_traverse+0x186>
    8000309e:	644a                	ld	s0,144(sp)
    800030a0:	64aa                	ld	s1,136(sp)
    800030a2:	690a                	ld	s2,128(sp)
    800030a4:	79e6                	ld	s3,120(sp)
    800030a6:	7a46                	ld	s4,112(sp)
    800030a8:	7aa6                	ld	s5,104(sp)
    800030aa:	7b06                	ld	s6,96(sp)
    800030ac:	bf69                	j	80003046 <lfs_traverse+0x186>

00000000800030ae <lfs_alloc>:
    800030ae:	1101                	addi	sp,sp,-32
    800030b0:	ec06                	sd	ra,24(sp)
    800030b2:	e822                	sd	s0,16(sp)
    800030b4:	e426                	sd	s1,8(sp)
    800030b6:	e04a                	sd	s2,0(sp)
    800030b8:	842a                	mv	s0,a0
    800030ba:	892e                	mv	s2,a1
    800030bc:	4485                	li	s1,1
    800030be:	4070                	lw	a2,68(s0)
    800030c0:	4438                	lw	a4,72(s0)
    800030c2:	06c70e63          	beq	a4,a2,8000313e <lfs_alloc+0x90>
    800030c6:	0017079b          	addiw	a5,a4,1
    800030ca:	c43c                	sw	a5,72(s0)
    800030cc:	447c                	lw	a5,76(s0)
    800030ce:	37fd                	addiw	a5,a5,-1
    800030d0:	c47c                	sw	a5,76(s0)
    800030d2:	0057579b          	srliw	a5,a4,0x5
    800030d6:	6834                	ld	a3,80(s0)
    800030d8:	078a                	slli	a5,a5,0x2
    800030da:	97b6                	add	a5,a5,a3
    800030dc:	00e496bb          	sllw	a3,s1,a4
    800030e0:	439c                	lw	a5,0(a5)
    800030e2:	8ff5                	and	a5,a5,a3
    800030e4:	2781                	sext.w	a5,a5
    800030e6:	ffe9                	bnez	a5,800030c0 <lfs_alloc+0x12>
    800030e8:	403c                	lw	a5,64(s0)
    800030ea:	9fb9                	addw	a5,a5,a4
    800030ec:	6018                	ld	a4,0(s0)
    800030ee:	5b58                	lw	a4,52(a4)
    800030f0:	02e7f7bb          	remuw	a5,a5,a4
    800030f4:	00f92023          	sw	a5,0(s2) # 10000 <_ftext-0x7fff0000>
    800030f8:	4438                	lw	a4,72(s0)
    800030fa:	4070                	lw	a2,68(s0)
    800030fc:	08c70463          	beq	a4,a2,80003184 <lfs_alloc+0xd6>
    80003100:	6828                	ld	a0,80(s0)
    80003102:	4585                	li	a1,1
    80003104:	0057579b          	srliw	a5,a4,0x5
    80003108:	078a                	slli	a5,a5,0x2
    8000310a:	97aa                	add	a5,a5,a0
    8000310c:	00e596bb          	sllw	a3,a1,a4
    80003110:	439c                	lw	a5,0(a5)
    80003112:	8ff5                	and	a5,a5,a3
    80003114:	2781                	sext.w	a5,a5
    80003116:	cf89                	beqz	a5,80003130 <lfs_alloc+0x82>
    80003118:	0017079b          	addiw	a5,a4,1
    8000311c:	0007871b          	sext.w	a4,a5
    80003120:	c43c                	sw	a5,72(s0)
    80003122:	447c                	lw	a5,76(s0)
    80003124:	37fd                	addiw	a5,a5,-1
    80003126:	c47c                	sw	a5,76(s0)
    80003128:	fcc71ee3          	bne	a4,a2,80003104 <lfs_alloc+0x56>
    8000312c:	4501                	li	a0,0
    8000312e:	a011                	j	80003132 <lfs_alloc+0x84>
    80003130:	4501                	li	a0,0
    80003132:	60e2                	ld	ra,24(sp)
    80003134:	6442                	ld	s0,16(sp)
    80003136:	64a2                	ld	s1,8(sp)
    80003138:	6902                	ld	s2,0(sp)
    8000313a:	6105                	addi	sp,sp,32
    8000313c:	8082                	ret
    8000313e:	4474                	lw	a3,76(s0)
    80003140:	c6a1                	beqz	a3,80003188 <lfs_alloc+0xda>
    80003142:	6018                	ld	a4,0(s0)
    80003144:	403c                	lw	a5,64(s0)
    80003146:	9fb1                	addw	a5,a5,a2
    80003148:	5b50                	lw	a2,52(a4)
    8000314a:	02c7f7bb          	remuw	a5,a5,a2
    8000314e:	c03c                	sw	a5,64(s0)
    80003150:	5f1c                	lw	a5,56(a4)
    80003152:	863e                	mv	a2,a5
    80003154:	2781                	sext.w	a5,a5
    80003156:	00f6f363          	bgeu	a3,a5,8000315c <lfs_alloc+0xae>
    8000315a:	8636                	mv	a2,a3
    8000315c:	c070                	sw	a2,68(s0)
    8000315e:	04042423          	sw	zero,72(s0)
    80003162:	5f10                	lw	a2,56(a4)
    80003164:	0036561b          	srliw	a2,a2,0x3
    80003168:	4581                	li	a1,0
    8000316a:	6828                	ld	a0,80(s0)
    8000316c:	db6fe0ef          	jal	80001722 <memset>
    80003170:	8622                	mv	a2,s0
    80003172:	ffffe597          	auipc	a1,0xffffe
    80003176:	78a58593          	addi	a1,a1,1930 # 800018fc <lfs_alloc_lookahead>
    8000317a:	8522                	mv	a0,s0
    8000317c:	d45ff0ef          	jal	80002ec0 <lfs_traverse>
    80003180:	dd1d                	beqz	a0,800030be <lfs_alloc+0x10>
    80003182:	bf45                	j	80003132 <lfs_alloc+0x84>
    80003184:	4501                	li	a0,0
    80003186:	b775                	j	80003132 <lfs_alloc+0x84>
    80003188:	5511                	li	a0,-28
    8000318a:	b765                	j	80003132 <lfs_alloc+0x84>

000000008000318c <lfs_dir_alloc>:
    8000318c:	1101                	addi	sp,sp,-32
    8000318e:	ec06                	sd	ra,24(sp)
    80003190:	e822                	sd	s0,16(sp)
    80003192:	e426                	sd	s1,8(sp)
    80003194:	e04a                	sd	s2,0(sp)
    80003196:	892a                	mv	s2,a0
    80003198:	842e                	mv	s0,a1
    8000319a:	05a1                	addi	a1,a1,8
    8000319c:	f13ff0ef          	jal	800030ae <lfs_alloc>
    800031a0:	84aa                	mv	s1,a0
    800031a2:	e925                	bnez	a0,80003212 <lfs_dir_alloc+0x86>
    800031a4:	00c40593          	addi	a1,s0,12
    800031a8:	854a                	mv	a0,s2
    800031aa:	f05ff0ef          	jal	800030ae <lfs_alloc>
    800031ae:	84aa                	mv	s1,a0
    800031b0:	e12d                	bnez	a0,80003212 <lfs_dir_alloc+0x86>
    800031b2:	4711                	li	a4,4
    800031b4:	02040693          	addi	a3,s0,32
    800031b8:	4601                	li	a2,0
    800031ba:	440c                	lw	a1,8(s0)
    800031bc:	854a                	mv	a0,s2
    800031be:	b05fe0ef          	jal	80001cc2 <lfs_bd_read>
    800031c2:	c519                	beqz	a0,800031d0 <lfs_dir_alloc+0x44>
    800031c4:	fcc00793          	li	a5,-52
    800031c8:	02f50b63          	beq	a0,a5,800031fe <lfs_dir_alloc+0x72>
    800031cc:	84aa                	mv	s1,a0
    800031ce:	a091                	j	80003212 <lfs_dir_alloc+0x86>
    800031d0:	5018                	lw	a4,32(s0)
    800031d2:	00875793          	srli	a5,a4,0x8
    800031d6:	0ff7f793          	zext.b	a5,a5
    800031da:	0087979b          	slliw	a5,a5,0x8
    800031de:	01075693          	srli	a3,a4,0x10
    800031e2:	0ff6f693          	zext.b	a3,a3
    800031e6:	0106969b          	slliw	a3,a3,0x10
    800031ea:	8fd5                	or	a5,a5,a3
    800031ec:	0ff77693          	zext.b	a3,a4
    800031f0:	8fd5                	or	a5,a5,a3
    800031f2:	0187571b          	srliw	a4,a4,0x18
    800031f6:	0187171b          	slliw	a4,a4,0x18
    800031fa:	8fd9                	or	a5,a5,a4
    800031fc:	d01c                	sw	a5,32(s0)
    800031fe:	501c                	lw	a5,32(s0)
    80003200:	2785                	addiw	a5,a5,1
    80003202:	d01c                	sw	a5,32(s0)
    80003204:	47d1                	li	a5,20
    80003206:	d05c                	sw	a5,36(s0)
    80003208:	57fd                	li	a5,-1
    8000320a:	d41c                	sw	a5,40(s0)
    8000320c:	d45c                	sw	a5,44(s0)
    8000320e:	47c1                	li	a5,16
    80003210:	c81c                	sw	a5,16(s0)
    80003212:	8526                	mv	a0,s1
    80003214:	60e2                	ld	ra,24(sp)
    80003216:	6442                	ld	s0,16(sp)
    80003218:	64a2                	ld	s1,8(sp)
    8000321a:	6902                	ld	s2,0(sp)
    8000321c:	6105                	addi	sp,sp,32
    8000321e:	8082                	ret

0000000080003220 <lfs_file_relocate>:
    80003220:	7159                	addi	sp,sp,-112
    80003222:	f486                	sd	ra,104(sp)
    80003224:	f0a2                	sd	s0,96(sp)
    80003226:	eca6                	sd	s1,88(sp)
    80003228:	e8ca                	sd	s2,80(sp)
    8000322a:	e4ce                	sd	s3,72(sp)
    8000322c:	e0d2                	sd	s4,64(sp)
    8000322e:	fc56                	sd	s5,56(sp)
    80003230:	f85a                	sd	s6,48(sp)
    80003232:	f45e                	sd	s7,40(sp)
    80003234:	f062                	sd	s8,32(sp)
    80003236:	ec66                	sd	s9,24(sp)
    80003238:	892a                	mv	s2,a0
    8000323a:	89ae                	mv	s3,a1
    8000323c:	4c81                	li	s9,0
    8000323e:	02050a13          	addi	s4,a0,32
    80003242:	03858b13          	addi	s6,a1,56
    80003246:	03050b93          	addi	s7,a0,48
    8000324a:	fcc00c13          	li	s8,-52
    8000324e:	006c                	addi	a1,sp,12
    80003250:	854a                	mv	a0,s2
    80003252:	e5dff0ef          	jal	800030ae <lfs_alloc>
    80003256:	84aa                	mv	s1,a0
    80003258:	e155                	bnez	a0,800032fc <lfs_file_relocate+0xdc>
    8000325a:	4ab2                	lw	s5,12(sp)
    8000325c:	85d6                	mv	a1,s5
    8000325e:	854a                	mv	a0,s2
    80003260:	e8cfe0ef          	jal	800018ec <lfs_bd_erase>
    80003264:	84aa                	mv	s1,a0
    80003266:	c911                	beqz	a0,8000327a <lfs_file_relocate+0x5a>
